ARM GAS  C:\Users\wxpwx\AppData\Local\Temp\ccO6lK8D.s 			page 1


   1              		.cpu cortex-m3
   2              		.arch armv7-m
   3              		.fpu softvfp
   4              		.eabi_attribute 20, 1
   5              		.eabi_attribute 21, 1
   6              		.eabi_attribute 23, 3
   7              		.eabi_attribute 24, 1
   8              		.eabi_attribute 25, 1
   9              		.eabi_attribute 26, 1
  10              		.eabi_attribute 30, 1
  11              		.eabi_attribute 34, 1
  12              		.eabi_attribute 18, 4
  13              		.file	"lab_usart_simple.c"
  14              		.text
  15              		.section	.text.NVIC_USART_Configuration,"ax",%progbits
  16              		.align	1
  17              		.global	NVIC_USART_Configuration
  18              		.syntax unified
  19              		.thumb
  20              		.thumb_func
  22              	NVIC_USART_Configuration:
  23              		@ args = 0, pretend = 0, frame = 8
  24              		@ frame_needed = 0, uses_anonymous_args = 0
  25 0000 00B5     		push	{lr}
  26 0002 83B0     		sub	sp, sp, #12
  27 0004 4FF4A060 		mov	r0, #1280
  28 0008 FFF7FEFF 		bl	NVIC_PriorityGroupConfig
  29 000c 2523     		movs	r3, #37
  30 000e 8DF80430 		strb	r3, [sp, #4]
  31 0012 0123     		movs	r3, #1
  32 0014 8DF80530 		strb	r3, [sp, #5]
  33 0018 8DF80630 		strb	r3, [sp, #6]
  34 001c 8DF80730 		strb	r3, [sp, #7]
  35 0020 01A8     		add	r0, sp, #4
  36 0022 FFF7FEFF 		bl	NVIC_Init
  37 0026 03B0     		add	sp, sp, #12
  38              		@ sp needed
  39 0028 5DF804FB 		ldr	pc, [sp], #4
  41              		.section	.text.Uart_Init,"ax",%progbits
  42              		.align	1
  43              		.global	Uart_Init
  44              		.syntax unified
  45              		.thumb
  46              		.thumb_func
  48              	Uart_Init:
  49              		@ args = 0, pretend = 0, frame = 24
  50              		@ frame_needed = 0, uses_anonymous_args = 0
  51 0000 10B5     		push	{r4, lr}
  52 0002 86B0     		sub	sp, sp, #24
  53 0004 0121     		movs	r1, #1
  54 0006 44F20400 		movw	r0, #16388
  55 000a FFF7FEFF 		bl	RCC_APB2PeriphClockCmd
  56 000e 4FF40073 		mov	r3, #512
  57 0012 ADF80430 		strh	r3, [sp, #4]	@ movhi
  58 0016 1823     		movs	r3, #24
  59 0018 8DF80730 		strb	r3, [sp, #7]
  60 001c 0323     		movs	r3, #3
ARM GAS  C:\Users\wxpwx\AppData\Local\Temp\ccO6lK8D.s 			page 2


  61 001e 8DF80630 		strb	r3, [sp, #6]
  62 0022 1A4C     		ldr	r4, .L5
  63 0024 01A9     		add	r1, sp, #4
  64 0026 2046     		mov	r0, r4
  65 0028 FFF7FEFF 		bl	GPIO_Init
  66 002c 4FF48063 		mov	r3, #1024
  67 0030 ADF80430 		strh	r3, [sp, #4]	@ movhi
  68 0034 0423     		movs	r3, #4
  69 0036 8DF80730 		strb	r3, [sp, #7]
  70 003a 0DEB0301 		add	r1, sp, r3
  71 003e 2046     		mov	r0, r4
  72 0040 FFF7FEFF 		bl	GPIO_Init
  73 0044 4FF4E133 		mov	r3, #115200
  74 0048 0293     		str	r3, [sp, #8]
  75 004a 0023     		movs	r3, #0
  76 004c ADF80C30 		strh	r3, [sp, #12]	@ movhi
  77 0050 ADF80E30 		strh	r3, [sp, #14]	@ movhi
  78 0054 ADF81030 		strh	r3, [sp, #16]	@ movhi
  79 0058 ADF81430 		strh	r3, [sp, #20]	@ movhi
  80 005c 0C23     		movs	r3, #12
  81 005e ADF81230 		strh	r3, [sp, #18]	@ movhi
  82 0062 04F54054 		add	r4, r4, #12288
  83 0066 02A9     		add	r1, sp, #8
  84 0068 2046     		mov	r0, r4
  85 006a FFF7FEFF 		bl	USART_Init
  86 006e 0122     		movs	r2, #1
  87 0070 40F22551 		movw	r1, #1317
  88 0074 2046     		mov	r0, r4
  89 0076 FFF7FEFF 		bl	USART_ITConfig
  90 007a FFF7FEFF 		bl	NVIC_USART_Configuration
  91 007e 0121     		movs	r1, #1
  92 0080 2046     		mov	r0, r4
  93 0082 FFF7FEFF 		bl	USART_Cmd
  94 0086 06B0     		add	sp, sp, #24
  95              		@ sp needed
  96 0088 10BD     		pop	{r4, pc}
  97              	.L6:
  98 008a 00BF     		.align	2
  99              	.L5:
 100 008c 00080140 		.word	1073809408
 102              		.section	.text.Usart_SendByte,"ax",%progbits
 103              		.align	1
 104              		.global	Usart_SendByte
 105              		.syntax unified
 106              		.thumb
 107              		.thumb_func
 109              	Usart_SendByte:
 110              		@ args = 0, pretend = 0, frame = 0
 111              		@ frame_needed = 0, uses_anonymous_args = 0
 112 0000 10B5     		push	{r4, lr}
 113 0002 0446     		mov	r4, r0
 114 0004 FFF7FEFF 		bl	USART_SendData
 115              	.L8:
 116 0008 8021     		movs	r1, #128
 117 000a 2046     		mov	r0, r4
 118 000c FFF7FEFF 		bl	USART_GetFlagStatus
 119 0010 0028     		cmp	r0, #0
ARM GAS  C:\Users\wxpwx\AppData\Local\Temp\ccO6lK8D.s 			page 3


 120 0012 F9D0     		beq	.L8
 121 0014 10BD     		pop	{r4, pc}
 123              		.section	.text.Usart_SendString,"ax",%progbits
 124              		.align	1
 125              		.global	Usart_SendString
 126              		.syntax unified
 127              		.thumb
 128              		.thumb_func
 130              	Usart_SendString:
 131              		@ args = 0, pretend = 0, frame = 0
 132              		@ frame_needed = 0, uses_anonymous_args = 0
 133 0000 38B5     		push	{r3, r4, r5, lr}
 134 0002 0546     		mov	r5, r0
 135 0004 0C46     		mov	r4, r1
 136 0006 03E0     		b	.L11
 137              	.L12:
 138 0008 2846     		mov	r0, r5
 139 000a FFF7FEFF 		bl	Usart_SendByte
 140 000e 0134     		adds	r4, r4, #1
 141              	.L11:
 142 0010 2178     		ldrb	r1, [r4]	@ zero_extendqisi2
 143 0012 0029     		cmp	r1, #0
 144 0014 F8D1     		bne	.L12
 145              	.L13:
 146 0016 4021     		movs	r1, #64
 147 0018 2846     		mov	r0, r5
 148 001a FFF7FEFF 		bl	USART_GetFlagStatus
 149 001e 0028     		cmp	r0, #0
 150 0020 F9D0     		beq	.L13
 151 0022 38BD     		pop	{r3, r4, r5, pc}
 153              		.section	.text.USART1_IRQHandler,"ax",%progbits
 154              		.align	1
 155              		.global	USART1_IRQHandler
 156              		.syntax unified
 157              		.thumb
 158              		.thumb_func
 160              	USART1_IRQHandler:
 161              		@ args = 0, pretend = 0, frame = 0
 162              		@ frame_needed = 0, uses_anonymous_args = 0
 163 0000 08B5     		push	{r3, lr}
 164 0002 40F22551 		movw	r1, #1317
 165 0006 0B48     		ldr	r0, .L19
 166 0008 FFF7FEFF 		bl	USART_GetITStatus
 167 000c 00B9     		cbnz	r0, .L18
 168              	.L15:
 169 000e 08BD     		pop	{r3, pc}
 170              	.L18:
 171 0010 094A     		ldr	r2, .L19+4
 172 0012 D368     		ldr	r3, [r2, #12]
 173 0014 83F48073 		eor	r3, r3, #256
 174 0018 D360     		str	r3, [r2, #12]
 175 001a 02F54062 		add	r2, r2, #3072
 176 001e D368     		ldr	r3, [r2, #12]
 177 0020 83F00403 		eor	r3, r3, #4
 178 0024 D360     		str	r3, [r2, #12]
 179 0026 40F22551 		movw	r1, #1317
 180 002a 0248     		ldr	r0, .L19
ARM GAS  C:\Users\wxpwx\AppData\Local\Temp\ccO6lK8D.s 			page 4


 181 002c FFF7FEFF 		bl	USART_ClearITPendingBit
 182 0030 EDE7     		b	.L15
 183              	.L20:
 184 0032 00BF     		.align	2
 185              	.L19:
 186 0034 00380140 		.word	1073821696
 187 0038 00080140 		.word	1073809408
 189              		.ident	"GCC: (GNU Arm Embedded Toolchain 10.3-2021.10) 10.3.1 20210824 (release)"
ARM GAS  C:\Users\wxpwx\AppData\Local\Temp\ccO6lK8D.s 			page 5

