ARM GAS  C:\Users\wxpwx\AppData\Local\Temp\ccaO3yCu.s 			page 1


   1              		.cpu cortex-m3
   2              		.arch armv7-m
   3              		.fpu softvfp
   4              		.eabi_attribute 20, 1
   5              		.eabi_attribute 21, 1
   6              		.eabi_attribute 23, 3
   7              		.eabi_attribute 24, 1
   8              		.eabi_attribute 25, 1
   9              		.eabi_attribute 26, 1
  10              		.eabi_attribute 30, 1
  11              		.eabi_attribute 34, 1
  12              		.eabi_attribute 18, 4
  13              		.file	"stm32f10x_dma.c"
  14              		.text
  15              		.section	.text.DMA_DeInit,"ax",%progbits
  16              		.align	1
  17              		.global	DMA_DeInit
  18              		.syntax unified
  19              		.thumb
  20              		.thumb_func
  22              	DMA_DeInit:
  23              		@ args = 0, pretend = 0, frame = 0
  24              		@ frame_needed = 0, uses_anonymous_args = 0
  25              		@ link register save eliminated.
  26 0000 0368     		ldr	r3, [r0]
  27 0002 23F00103 		bic	r3, r3, #1
  28 0006 1B04     		lsls	r3, r3, #16
  29 0008 1B0C     		lsrs	r3, r3, #16
  30 000a 0360     		str	r3, [r0]
  31 000c 0023     		movs	r3, #0
  32 000e 0360     		str	r3, [r0]
  33 0010 4360     		str	r3, [r0, #4]
  34 0012 8360     		str	r3, [r0, #8]
  35 0014 C360     		str	r3, [r0, #12]
  36 0016 364B     		ldr	r3, .L26
  37 0018 9842     		cmp	r0, r3
  38 001a 21D0     		beq	.L14
  39 001c 354B     		ldr	r3, .L26+4
  40 001e 9842     		cmp	r0, r3
  41 0020 24D0     		beq	.L15
  42 0022 354B     		ldr	r3, .L26+8
  43 0024 9842     		cmp	r0, r3
  44 0026 27D0     		beq	.L16
  45 0028 344B     		ldr	r3, .L26+12
  46 002a 9842     		cmp	r0, r3
  47 002c 2AD0     		beq	.L17
  48 002e 344B     		ldr	r3, .L26+16
  49 0030 9842     		cmp	r0, r3
  50 0032 2DD0     		beq	.L18
  51 0034 334B     		ldr	r3, .L26+20
  52 0036 9842     		cmp	r0, r3
  53 0038 30D0     		beq	.L19
  54 003a 334B     		ldr	r3, .L26+24
  55 003c 9842     		cmp	r0, r3
  56 003e 33D0     		beq	.L20
  57 0040 324B     		ldr	r3, .L26+28
  58 0042 9842     		cmp	r0, r3
ARM GAS  C:\Users\wxpwx\AppData\Local\Temp\ccaO3yCu.s 			page 2


  59 0044 36D0     		beq	.L21
  60 0046 324B     		ldr	r3, .L26+32
  61 0048 9842     		cmp	r0, r3
  62 004a 39D0     		beq	.L22
  63 004c 314B     		ldr	r3, .L26+36
  64 004e 9842     		cmp	r0, r3
  65 0050 3CD0     		beq	.L23
  66 0052 314B     		ldr	r3, .L26+40
  67 0054 9842     		cmp	r0, r3
  68 0056 3FD0     		beq	.L24
  69 0058 304B     		ldr	r3, .L26+44
  70 005a 9842     		cmp	r0, r3
  71 005c 42D0     		beq	.L25
  72              	.L1:
  73 005e 7047     		bx	lr
  74              	.L14:
  75 0060 2F4A     		ldr	r2, .L26+48
  76 0062 5368     		ldr	r3, [r2, #4]
  77 0064 43F00F03 		orr	r3, r3, #15
  78 0068 5360     		str	r3, [r2, #4]
  79 006a 7047     		bx	lr
  80              	.L15:
  81 006c 2C4A     		ldr	r2, .L26+48
  82 006e 5368     		ldr	r3, [r2, #4]
  83 0070 43F0F003 		orr	r3, r3, #240
  84 0074 5360     		str	r3, [r2, #4]
  85 0076 7047     		bx	lr
  86              	.L16:
  87 0078 294A     		ldr	r2, .L26+48
  88 007a 5368     		ldr	r3, [r2, #4]
  89 007c 43F47063 		orr	r3, r3, #3840
  90 0080 5360     		str	r3, [r2, #4]
  91 0082 7047     		bx	lr
  92              	.L17:
  93 0084 264A     		ldr	r2, .L26+48
  94 0086 5368     		ldr	r3, [r2, #4]
  95 0088 43F47043 		orr	r3, r3, #61440
  96 008c 5360     		str	r3, [r2, #4]
  97 008e 7047     		bx	lr
  98              	.L18:
  99 0090 234A     		ldr	r2, .L26+48
 100 0092 5368     		ldr	r3, [r2, #4]
 101 0094 43F47023 		orr	r3, r3, #983040
 102 0098 5360     		str	r3, [r2, #4]
 103 009a 7047     		bx	lr
 104              	.L19:
 105 009c 204A     		ldr	r2, .L26+48
 106 009e 5368     		ldr	r3, [r2, #4]
 107 00a0 43F47003 		orr	r3, r3, #15728640
 108 00a4 5360     		str	r3, [r2, #4]
 109 00a6 7047     		bx	lr
 110              	.L20:
 111 00a8 1D4A     		ldr	r2, .L26+48
 112 00aa 5368     		ldr	r3, [r2, #4]
 113 00ac 43F07063 		orr	r3, r3, #251658240
 114 00b0 5360     		str	r3, [r2, #4]
 115 00b2 7047     		bx	lr
ARM GAS  C:\Users\wxpwx\AppData\Local\Temp\ccaO3yCu.s 			page 3


 116              	.L21:
 117 00b4 1B4A     		ldr	r2, .L26+52
 118 00b6 5368     		ldr	r3, [r2, #4]
 119 00b8 43F00F03 		orr	r3, r3, #15
 120 00bc 5360     		str	r3, [r2, #4]
 121 00be 7047     		bx	lr
 122              	.L22:
 123 00c0 184A     		ldr	r2, .L26+52
 124 00c2 5368     		ldr	r3, [r2, #4]
 125 00c4 43F0F003 		orr	r3, r3, #240
 126 00c8 5360     		str	r3, [r2, #4]
 127 00ca 7047     		bx	lr
 128              	.L23:
 129 00cc 154A     		ldr	r2, .L26+52
 130 00ce 5368     		ldr	r3, [r2, #4]
 131 00d0 43F47063 		orr	r3, r3, #3840
 132 00d4 5360     		str	r3, [r2, #4]
 133 00d6 7047     		bx	lr
 134              	.L24:
 135 00d8 124A     		ldr	r2, .L26+52
 136 00da 5368     		ldr	r3, [r2, #4]
 137 00dc 43F47043 		orr	r3, r3, #61440
 138 00e0 5360     		str	r3, [r2, #4]
 139 00e2 7047     		bx	lr
 140              	.L25:
 141 00e4 0F4A     		ldr	r2, .L26+52
 142 00e6 5368     		ldr	r3, [r2, #4]
 143 00e8 43F47023 		orr	r3, r3, #983040
 144 00ec 5360     		str	r3, [r2, #4]
 145 00ee B6E7     		b	.L1
 146              	.L27:
 147              		.align	2
 148              	.L26:
 149 00f0 08000240 		.word	1073872904
 150 00f4 1C000240 		.word	1073872924
 151 00f8 30000240 		.word	1073872944
 152 00fc 44000240 		.word	1073872964
 153 0100 58000240 		.word	1073872984
 154 0104 6C000240 		.word	1073873004
 155 0108 80000240 		.word	1073873024
 156 010c 08040240 		.word	1073873928
 157 0110 1C040240 		.word	1073873948
 158 0114 30040240 		.word	1073873968
 159 0118 44040240 		.word	1073873988
 160 011c 58040240 		.word	1073874008
 161 0120 00000240 		.word	1073872896
 162 0124 00040240 		.word	1073873920
 164              		.section	.text.DMA_Init,"ax",%progbits
 165              		.align	1
 166              		.global	DMA_Init
 167              		.syntax unified
 168              		.thumb
 169              		.thumb_func
 171              	DMA_Init:
 172              		@ args = 0, pretend = 0, frame = 0
 173              		@ frame_needed = 0, uses_anonymous_args = 0
 174              		@ link register save eliminated.
ARM GAS  C:\Users\wxpwx\AppData\Local\Temp\ccaO3yCu.s 			page 4


 175 0000 10B4     		push	{r4}
 176 0002 0268     		ldr	r2, [r0]
 177 0004 22F4FF42 		bic	r2, r2, #32640
 178 0008 22F07002 		bic	r2, r2, #112
 179 000c 8B68     		ldr	r3, [r1, #8]
 180 000e 0C6A     		ldr	r4, [r1, #32]
 181 0010 2343     		orrs	r3, r3, r4
 182 0012 0C69     		ldr	r4, [r1, #16]
 183 0014 2343     		orrs	r3, r3, r4
 184 0016 4C69     		ldr	r4, [r1, #20]
 185 0018 2343     		orrs	r3, r3, r4
 186 001a 8C69     		ldr	r4, [r1, #24]
 187 001c 2343     		orrs	r3, r3, r4
 188 001e CC69     		ldr	r4, [r1, #28]
 189 0020 2343     		orrs	r3, r3, r4
 190 0022 4C6A     		ldr	r4, [r1, #36]
 191 0024 2343     		orrs	r3, r3, r4
 192 0026 8C6A     		ldr	r4, [r1, #40]
 193 0028 2343     		orrs	r3, r3, r4
 194 002a 1343     		orrs	r3, r3, r2
 195 002c 0360     		str	r3, [r0]
 196 002e CB68     		ldr	r3, [r1, #12]
 197 0030 4360     		str	r3, [r0, #4]
 198 0032 0B68     		ldr	r3, [r1]
 199 0034 8360     		str	r3, [r0, #8]
 200 0036 4B68     		ldr	r3, [r1, #4]
 201 0038 C360     		str	r3, [r0, #12]
 202 003a 10BC     		pop	{r4}
 203 003c 7047     		bx	lr
 205              		.section	.text.DMA_StructInit,"ax",%progbits
 206              		.align	1
 207              		.global	DMA_StructInit
 208              		.syntax unified
 209              		.thumb
 210              		.thumb_func
 212              	DMA_StructInit:
 213              		@ args = 0, pretend = 0, frame = 0
 214              		@ frame_needed = 0, uses_anonymous_args = 0
 215              		@ link register save eliminated.
 216 0000 0023     		movs	r3, #0
 217 0002 0360     		str	r3, [r0]
 218 0004 4360     		str	r3, [r0, #4]
 219 0006 8360     		str	r3, [r0, #8]
 220 0008 C360     		str	r3, [r0, #12]
 221 000a 0361     		str	r3, [r0, #16]
 222 000c 4361     		str	r3, [r0, #20]
 223 000e 8361     		str	r3, [r0, #24]
 224 0010 C361     		str	r3, [r0, #28]
 225 0012 0362     		str	r3, [r0, #32]
 226 0014 4362     		str	r3, [r0, #36]
 227 0016 8362     		str	r3, [r0, #40]
 228 0018 7047     		bx	lr
 230              		.section	.text.DMA_Cmd,"ax",%progbits
 231              		.align	1
 232              		.global	DMA_Cmd
 233              		.syntax unified
 234              		.thumb
ARM GAS  C:\Users\wxpwx\AppData\Local\Temp\ccaO3yCu.s 			page 5


 235              		.thumb_func
 237              	DMA_Cmd:
 238              		@ args = 0, pretend = 0, frame = 0
 239              		@ frame_needed = 0, uses_anonymous_args = 0
 240              		@ link register save eliminated.
 241 0000 21B1     		cbz	r1, .L32
 242 0002 0368     		ldr	r3, [r0]
 243 0004 43F00103 		orr	r3, r3, #1
 244 0008 0360     		str	r3, [r0]
 245 000a 7047     		bx	lr
 246              	.L32:
 247 000c 0368     		ldr	r3, [r0]
 248 000e 23F00103 		bic	r3, r3, #1
 249 0012 1B04     		lsls	r3, r3, #16
 250 0014 1B0C     		lsrs	r3, r3, #16
 251 0016 0360     		str	r3, [r0]
 252 0018 7047     		bx	lr
 254              		.section	.text.DMA_ITConfig,"ax",%progbits
 255              		.align	1
 256              		.global	DMA_ITConfig
 257              		.syntax unified
 258              		.thumb
 259              		.thumb_func
 261              	DMA_ITConfig:
 262              		@ args = 0, pretend = 0, frame = 0
 263              		@ frame_needed = 0, uses_anonymous_args = 0
 264              		@ link register save eliminated.
 265 0000 1AB1     		cbz	r2, .L35
 266 0002 0368     		ldr	r3, [r0]
 267 0004 1943     		orrs	r1, r1, r3
 268 0006 0160     		str	r1, [r0]
 269 0008 7047     		bx	lr
 270              	.L35:
 271 000a 0368     		ldr	r3, [r0]
 272 000c 23EA0101 		bic	r1, r3, r1
 273 0010 0160     		str	r1, [r0]
 274 0012 7047     		bx	lr
 276              		.section	.text.DMA_SetCurrDataCounter,"ax",%progbits
 277              		.align	1
 278              		.global	DMA_SetCurrDataCounter
 279              		.syntax unified
 280              		.thumb
 281              		.thumb_func
 283              	DMA_SetCurrDataCounter:
 284              		@ args = 0, pretend = 0, frame = 0
 285              		@ frame_needed = 0, uses_anonymous_args = 0
 286              		@ link register save eliminated.
 287 0000 4160     		str	r1, [r0, #4]
 288 0002 7047     		bx	lr
 290              		.section	.text.DMA_GetCurrDataCounter,"ax",%progbits
 291              		.align	1
 292              		.global	DMA_GetCurrDataCounter
 293              		.syntax unified
 294              		.thumb
 295              		.thumb_func
 297              	DMA_GetCurrDataCounter:
 298              		@ args = 0, pretend = 0, frame = 0
ARM GAS  C:\Users\wxpwx\AppData\Local\Temp\ccaO3yCu.s 			page 6


 299              		@ frame_needed = 0, uses_anonymous_args = 0
 300              		@ link register save eliminated.
 301 0000 4068     		ldr	r0, [r0, #4]
 302 0002 80B2     		uxth	r0, r0
 303 0004 7047     		bx	lr
 305              		.section	.text.DMA_GetFlagStatus,"ax",%progbits
 306              		.align	1
 307              		.global	DMA_GetFlagStatus
 308              		.syntax unified
 309              		.thumb
 310              		.thumb_func
 312              	DMA_GetFlagStatus:
 313              		@ args = 0, pretend = 0, frame = 0
 314              		@ frame_needed = 0, uses_anonymous_args = 0
 315              		@ link register save eliminated.
 316 0000 10F0805F 		tst	r0, #268435456
 317 0004 05D0     		beq	.L40
 318 0006 054B     		ldr	r3, .L44
 319 0008 1B68     		ldr	r3, [r3]
 320              	.L41:
 321 000a 0342     		tst	r3, r0
 322 000c 04D0     		beq	.L43
 323 000e 0120     		movs	r0, #1
 324 0010 7047     		bx	lr
 325              	.L40:
 326 0012 034B     		ldr	r3, .L44+4
 327 0014 1B68     		ldr	r3, [r3]
 328 0016 F8E7     		b	.L41
 329              	.L43:
 330 0018 0020     		movs	r0, #0
 331 001a 7047     		bx	lr
 332              	.L45:
 333              		.align	2
 334              	.L44:
 335 001c 00040240 		.word	1073873920
 336 0020 00000240 		.word	1073872896
 338              		.section	.text.DMA_ClearFlag,"ax",%progbits
 339              		.align	1
 340              		.global	DMA_ClearFlag
 341              		.syntax unified
 342              		.thumb
 343              		.thumb_func
 345              	DMA_ClearFlag:
 346              		@ args = 0, pretend = 0, frame = 0
 347              		@ frame_needed = 0, uses_anonymous_args = 0
 348              		@ link register save eliminated.
 349 0000 10F0805F 		tst	r0, #268435456
 350 0004 02D0     		beq	.L47
 351 0006 034B     		ldr	r3, .L49
 352 0008 5860     		str	r0, [r3, #4]
 353 000a 7047     		bx	lr
 354              	.L47:
 355 000c 024B     		ldr	r3, .L49+4
 356 000e 5860     		str	r0, [r3, #4]
 357 0010 7047     		bx	lr
 358              	.L50:
 359 0012 00BF     		.align	2
ARM GAS  C:\Users\wxpwx\AppData\Local\Temp\ccaO3yCu.s 			page 7


 360              	.L49:
 361 0014 00040240 		.word	1073873920
 362 0018 00000240 		.word	1073872896
 364              		.section	.text.DMA_GetITStatus,"ax",%progbits
 365              		.align	1
 366              		.global	DMA_GetITStatus
 367              		.syntax unified
 368              		.thumb
 369              		.thumb_func
 371              	DMA_GetITStatus:
 372              		@ args = 0, pretend = 0, frame = 0
 373              		@ frame_needed = 0, uses_anonymous_args = 0
 374              		@ link register save eliminated.
 375 0000 10F0805F 		tst	r0, #268435456
 376 0004 05D0     		beq	.L52
 377 0006 054B     		ldr	r3, .L56
 378 0008 1B68     		ldr	r3, [r3]
 379              	.L53:
 380 000a 0342     		tst	r3, r0
 381 000c 04D0     		beq	.L55
 382 000e 0120     		movs	r0, #1
 383 0010 7047     		bx	lr
 384              	.L52:
 385 0012 034B     		ldr	r3, .L56+4
 386 0014 1B68     		ldr	r3, [r3]
 387 0016 F8E7     		b	.L53
 388              	.L55:
 389 0018 0020     		movs	r0, #0
 390 001a 7047     		bx	lr
 391              	.L57:
 392              		.align	2
 393              	.L56:
 394 001c 00040240 		.word	1073873920
 395 0020 00000240 		.word	1073872896
 397              		.section	.text.DMA_ClearITPendingBit,"ax",%progbits
 398              		.align	1
 399              		.global	DMA_ClearITPendingBit
 400              		.syntax unified
 401              		.thumb
 402              		.thumb_func
 404              	DMA_ClearITPendingBit:
 405              		@ args = 0, pretend = 0, frame = 0
 406              		@ frame_needed = 0, uses_anonymous_args = 0
 407              		@ link register save eliminated.
 408 0000 10F0805F 		tst	r0, #268435456
 409 0004 02D0     		beq	.L59
 410 0006 034B     		ldr	r3, .L61
 411 0008 5860     		str	r0, [r3, #4]
 412 000a 7047     		bx	lr
 413              	.L59:
 414 000c 024B     		ldr	r3, .L61+4
 415 000e 5860     		str	r0, [r3, #4]
 416 0010 7047     		bx	lr
 417              	.L62:
 418 0012 00BF     		.align	2
 419              	.L61:
 420 0014 00040240 		.word	1073873920
ARM GAS  C:\Users\wxpwx\AppData\Local\Temp\ccaO3yCu.s 			page 8


 421 0018 00000240 		.word	1073872896
 423              		.ident	"GCC: (GNU Arm Embedded Toolchain 10.3-2021.10) 10.3.1 20210824 (release)"
ARM GAS  C:\Users\wxpwx\AppData\Local\Temp\ccaO3yCu.s 			page 9

