ARM GAS  C:\Users\wxpwx\AppData\Local\Temp\ccnHoi0x.s 			page 1


   1              		.cpu cortex-m3
   2              		.arch armv7-m
   3              		.fpu softvfp
   4              		.eabi_attribute 20, 1
   5              		.eabi_attribute 21, 1
   6              		.eabi_attribute 23, 3
   7              		.eabi_attribute 24, 1
   8              		.eabi_attribute 25, 1
   9              		.eabi_attribute 26, 1
  10              		.eabi_attribute 30, 1
  11              		.eabi_attribute 34, 1
  12              		.eabi_attribute 18, 4
  13              		.file	"stm32f10x_sdio.c"
  14              		.text
  15              		.section	.text.SDIO_DeInit,"ax",%progbits
  16              		.align	1
  17              		.global	SDIO_DeInit
  18              		.syntax unified
  19              		.thumb
  20              		.thumb_func
  22              	SDIO_DeInit:
  23              		@ args = 0, pretend = 0, frame = 0
  24              		@ frame_needed = 0, uses_anonymous_args = 0
  25              		@ link register save eliminated.
  26 0000 064B     		ldr	r3, .L2
  27 0002 0022     		movs	r2, #0
  28 0004 1A60     		str	r2, [r3]
  29 0006 5A60     		str	r2, [r3, #4]
  30 0008 9A60     		str	r2, [r3, #8]
  31 000a DA60     		str	r2, [r3, #12]
  32 000c 5A62     		str	r2, [r3, #36]
  33 000e 9A62     		str	r2, [r3, #40]
  34 0010 DA62     		str	r2, [r3, #44]
  35 0012 0349     		ldr	r1, .L2+4
  36 0014 9963     		str	r1, [r3, #56]
  37 0016 DA63     		str	r2, [r3, #60]
  38 0018 7047     		bx	lr
  39              	.L3:
  40 001a 00BF     		.align	2
  41              	.L2:
  42 001c 00800140 		.word	1073840128
  43 0020 FF07C000 		.word	12584959
  45              		.section	.text.SDIO_Init,"ax",%progbits
  46              		.align	1
  47              		.global	SDIO_Init
  48              		.syntax unified
  49              		.thumb
  50              		.thumb_func
  52              	SDIO_Init:
  53              		@ args = 0, pretend = 0, frame = 0
  54              		@ frame_needed = 0, uses_anonymous_args = 0
  55              		@ link register save eliminated.
  56 0000 10B4     		push	{r4}
  57 0002 0A49     		ldr	r1, .L6
  58 0004 4A68     		ldr	r2, [r1, #4]
  59 0006 22F4FD42 		bic	r2, r2, #32384
  60 000a 22F07F02 		bic	r2, r2, #127
ARM GAS  C:\Users\wxpwx\AppData\Local\Temp\ccnHoi0x.s 			page 2


  61 000e 037D     		ldrb	r3, [r0, #20]	@ zero_extendqisi2
  62 0010 8468     		ldr	r4, [r0, #8]
  63 0012 2343     		orrs	r3, r3, r4
  64 0014 4468     		ldr	r4, [r0, #4]
  65 0016 2343     		orrs	r3, r3, r4
  66 0018 C468     		ldr	r4, [r0, #12]
  67 001a 2343     		orrs	r3, r3, r4
  68 001c 0468     		ldr	r4, [r0]
  69 001e 2343     		orrs	r3, r3, r4
  70 0020 0069     		ldr	r0, [r0, #16]
  71 0022 0343     		orrs	r3, r3, r0
  72 0024 1343     		orrs	r3, r3, r2
  73 0026 4B60     		str	r3, [r1, #4]
  74 0028 10BC     		pop	{r4}
  75 002a 7047     		bx	lr
  76              	.L7:
  77              		.align	2
  78              	.L6:
  79 002c 00800140 		.word	1073840128
  81              		.section	.text.SDIO_StructInit,"ax",%progbits
  82              		.align	1
  83              		.global	SDIO_StructInit
  84              		.syntax unified
  85              		.thumb
  86              		.thumb_func
  88              	SDIO_StructInit:
  89              		@ args = 0, pretend = 0, frame = 0
  90              		@ frame_needed = 0, uses_anonymous_args = 0
  91              		@ link register save eliminated.
  92 0000 0023     		movs	r3, #0
  93 0002 0375     		strb	r3, [r0, #20]
  94 0004 0360     		str	r3, [r0]
  95 0006 4360     		str	r3, [r0, #4]
  96 0008 8360     		str	r3, [r0, #8]
  97 000a C360     		str	r3, [r0, #12]
  98 000c 0361     		str	r3, [r0, #16]
  99 000e 7047     		bx	lr
 101              		.section	.text.SDIO_ClockCmd,"ax",%progbits
 102              		.align	1
 103              		.global	SDIO_ClockCmd
 104              		.syntax unified
 105              		.thumb
 106              		.thumb_func
 108              	SDIO_ClockCmd:
 109              		@ args = 0, pretend = 0, frame = 0
 110              		@ frame_needed = 0, uses_anonymous_args = 0
 111              		@ link register save eliminated.
 112 0000 014B     		ldr	r3, .L10
 113 0002 C3F8A000 		str	r0, [r3, #160]
 114 0006 7047     		bx	lr
 115              	.L11:
 116              		.align	2
 117              	.L10:
 118 0008 00003042 		.word	1110441984
 120              		.section	.text.SDIO_SetPowerState,"ax",%progbits
 121              		.align	1
 122              		.global	SDIO_SetPowerState
ARM GAS  C:\Users\wxpwx\AppData\Local\Temp\ccnHoi0x.s 			page 3


 123              		.syntax unified
 124              		.thumb
 125              		.thumb_func
 127              	SDIO_SetPowerState:
 128              		@ args = 0, pretend = 0, frame = 0
 129              		@ frame_needed = 0, uses_anonymous_args = 0
 130              		@ link register save eliminated.
 131 0000 014B     		ldr	r3, .L13
 132 0002 1860     		str	r0, [r3]
 133 0004 7047     		bx	lr
 134              	.L14:
 135 0006 00BF     		.align	2
 136              	.L13:
 137 0008 00800140 		.word	1073840128
 139              		.section	.text.SDIO_GetPowerState,"ax",%progbits
 140              		.align	1
 141              		.global	SDIO_GetPowerState
 142              		.syntax unified
 143              		.thumb
 144              		.thumb_func
 146              	SDIO_GetPowerState:
 147              		@ args = 0, pretend = 0, frame = 0
 148              		@ frame_needed = 0, uses_anonymous_args = 0
 149              		@ link register save eliminated.
 150 0000 024B     		ldr	r3, .L16
 151 0002 1868     		ldr	r0, [r3]
 152 0004 00F00300 		and	r0, r0, #3
 153 0008 7047     		bx	lr
 154              	.L17:
 155 000a 00BF     		.align	2
 156              	.L16:
 157 000c 00800140 		.word	1073840128
 159              		.section	.text.SDIO_ITConfig,"ax",%progbits
 160              		.align	1
 161              		.global	SDIO_ITConfig
 162              		.syntax unified
 163              		.thumb
 164              		.thumb_func
 166              	SDIO_ITConfig:
 167              		@ args = 0, pretend = 0, frame = 0
 168              		@ frame_needed = 0, uses_anonymous_args = 0
 169              		@ link register save eliminated.
 170 0000 21B1     		cbz	r1, .L19
 171 0002 054A     		ldr	r2, .L21
 172 0004 D36B     		ldr	r3, [r2, #60]
 173 0006 1843     		orrs	r0, r0, r3
 174 0008 D063     		str	r0, [r2, #60]
 175 000a 7047     		bx	lr
 176              	.L19:
 177 000c 024A     		ldr	r2, .L21
 178 000e D36B     		ldr	r3, [r2, #60]
 179 0010 23EA0000 		bic	r0, r3, r0
 180 0014 D063     		str	r0, [r2, #60]
 181 0016 7047     		bx	lr
 182              	.L22:
 183              		.align	2
 184              	.L21:
ARM GAS  C:\Users\wxpwx\AppData\Local\Temp\ccnHoi0x.s 			page 4


 185 0018 00800140 		.word	1073840128
 187              		.section	.text.SDIO_DMACmd,"ax",%progbits
 188              		.align	1
 189              		.global	SDIO_DMACmd
 190              		.syntax unified
 191              		.thumb
 192              		.thumb_func
 194              	SDIO_DMACmd:
 195              		@ args = 0, pretend = 0, frame = 0
 196              		@ frame_needed = 0, uses_anonymous_args = 0
 197              		@ link register save eliminated.
 198 0000 014B     		ldr	r3, .L24
 199 0002 C3F88C05 		str	r0, [r3, #1420]
 200 0006 7047     		bx	lr
 201              	.L25:
 202              		.align	2
 203              	.L24:
 204 0008 00003042 		.word	1110441984
 206              		.section	.text.SDIO_SendCommand,"ax",%progbits
 207              		.align	1
 208              		.global	SDIO_SendCommand
 209              		.syntax unified
 210              		.thumb
 211              		.thumb_func
 213              	SDIO_SendCommand:
 214              		@ args = 0, pretend = 0, frame = 0
 215              		@ frame_needed = 0, uses_anonymous_args = 0
 216              		@ link register save eliminated.
 217 0000 10B4     		push	{r4}
 218 0002 0368     		ldr	r3, [r0]
 219 0004 0849     		ldr	r1, .L28
 220 0006 8B60     		str	r3, [r1, #8]
 221 0008 CA68     		ldr	r2, [r1, #12]
 222 000a 22F4FF62 		bic	r2, r2, #2040
 223 000e 22F00702 		bic	r2, r2, #7
 224 0012 4368     		ldr	r3, [r0, #4]
 225 0014 8468     		ldr	r4, [r0, #8]
 226 0016 2343     		orrs	r3, r3, r4
 227 0018 C468     		ldr	r4, [r0, #12]
 228 001a 2343     		orrs	r3, r3, r4
 229 001c 0069     		ldr	r0, [r0, #16]
 230 001e 0343     		orrs	r3, r3, r0
 231 0020 1343     		orrs	r3, r3, r2
 232 0022 CB60     		str	r3, [r1, #12]
 233 0024 10BC     		pop	{r4}
 234 0026 7047     		bx	lr
 235              	.L29:
 236              		.align	2
 237              	.L28:
 238 0028 00800140 		.word	1073840128
 240              		.section	.text.SDIO_CmdStructInit,"ax",%progbits
 241              		.align	1
 242              		.global	SDIO_CmdStructInit
 243              		.syntax unified
 244              		.thumb
 245              		.thumb_func
 247              	SDIO_CmdStructInit:
ARM GAS  C:\Users\wxpwx\AppData\Local\Temp\ccnHoi0x.s 			page 5


 248              		@ args = 0, pretend = 0, frame = 0
 249              		@ frame_needed = 0, uses_anonymous_args = 0
 250              		@ link register save eliminated.
 251 0000 0023     		movs	r3, #0
 252 0002 0360     		str	r3, [r0]
 253 0004 4360     		str	r3, [r0, #4]
 254 0006 8360     		str	r3, [r0, #8]
 255 0008 C360     		str	r3, [r0, #12]
 256 000a 0361     		str	r3, [r0, #16]
 257 000c 7047     		bx	lr
 259              		.section	.text.SDIO_GetCommandResponse,"ax",%progbits
 260              		.align	1
 261              		.global	SDIO_GetCommandResponse
 262              		.syntax unified
 263              		.thumb
 264              		.thumb_func
 266              	SDIO_GetCommandResponse:
 267              		@ args = 0, pretend = 0, frame = 0
 268              		@ frame_needed = 0, uses_anonymous_args = 0
 269              		@ link register save eliminated.
 270 0000 014B     		ldr	r3, .L32
 271 0002 1869     		ldr	r0, [r3, #16]
 272 0004 C0B2     		uxtb	r0, r0
 273 0006 7047     		bx	lr
 274              	.L33:
 275              		.align	2
 276              	.L32:
 277 0008 00800140 		.word	1073840128
 279              		.section	.text.SDIO_GetResponse,"ax",%progbits
 280              		.align	1
 281              		.global	SDIO_GetResponse
 282              		.syntax unified
 283              		.thumb
 284              		.thumb_func
 286              	SDIO_GetResponse:
 287              		@ args = 0, pretend = 0, frame = 8
 288              		@ frame_needed = 0, uses_anonymous_args = 0
 289              		@ link register save eliminated.
 290 0000 82B0     		sub	sp, sp, #8
 291 0002 0023     		movs	r3, #0
 292 0004 0193     		str	r3, [sp, #4]
 293 0006 034B     		ldr	r3, .L36
 294 0008 0344     		add	r3, r3, r0
 295 000a 0193     		str	r3, [sp, #4]
 296 000c 019B     		ldr	r3, [sp, #4]
 297 000e 1868     		ldr	r0, [r3]
 298 0010 02B0     		add	sp, sp, #8
 299              		@ sp needed
 300 0012 7047     		bx	lr
 301              	.L37:
 302              		.align	2
 303              	.L36:
 304 0014 14800140 		.word	1073840148
 306              		.section	.text.SDIO_DataConfig,"ax",%progbits
 307              		.align	1
 308              		.global	SDIO_DataConfig
 309              		.syntax unified
ARM GAS  C:\Users\wxpwx\AppData\Local\Temp\ccnHoi0x.s 			page 6


 310              		.thumb
 311              		.thumb_func
 313              	SDIO_DataConfig:
 314              		@ args = 0, pretend = 0, frame = 0
 315              		@ frame_needed = 0, uses_anonymous_args = 0
 316              		@ link register save eliminated.
 317 0000 10B4     		push	{r4}
 318 0002 0368     		ldr	r3, [r0]
 319 0004 084A     		ldr	r2, .L40
 320 0006 5362     		str	r3, [r2, #36]
 321 0008 4368     		ldr	r3, [r0, #4]
 322 000a 9362     		str	r3, [r2, #40]
 323 000c D16A     		ldr	r1, [r2, #44]
 324 000e 21F0F701 		bic	r1, r1, #247
 325 0012 8368     		ldr	r3, [r0, #8]
 326 0014 C468     		ldr	r4, [r0, #12]
 327 0016 2343     		orrs	r3, r3, r4
 328 0018 0469     		ldr	r4, [r0, #16]
 329 001a 2343     		orrs	r3, r3, r4
 330 001c 4069     		ldr	r0, [r0, #20]
 331 001e 0343     		orrs	r3, r3, r0
 332 0020 0B43     		orrs	r3, r3, r1
 333 0022 D362     		str	r3, [r2, #44]
 334 0024 10BC     		pop	{r4}
 335 0026 7047     		bx	lr
 336              	.L41:
 337              		.align	2
 338              	.L40:
 339 0028 00800140 		.word	1073840128
 341              		.section	.text.SDIO_DataStructInit,"ax",%progbits
 342              		.align	1
 343              		.global	SDIO_DataStructInit
 344              		.syntax unified
 345              		.thumb
 346              		.thumb_func
 348              	SDIO_DataStructInit:
 349              		@ args = 0, pretend = 0, frame = 0
 350              		@ frame_needed = 0, uses_anonymous_args = 0
 351              		@ link register save eliminated.
 352 0000 4FF0FF33 		mov	r3, #-1
 353 0004 0360     		str	r3, [r0]
 354 0006 0023     		movs	r3, #0
 355 0008 4360     		str	r3, [r0, #4]
 356 000a 8360     		str	r3, [r0, #8]
 357 000c C360     		str	r3, [r0, #12]
 358 000e 0361     		str	r3, [r0, #16]
 359 0010 4361     		str	r3, [r0, #20]
 360 0012 7047     		bx	lr
 362              		.section	.text.SDIO_GetDataCounter,"ax",%progbits
 363              		.align	1
 364              		.global	SDIO_GetDataCounter
 365              		.syntax unified
 366              		.thumb
 367              		.thumb_func
 369              	SDIO_GetDataCounter:
 370              		@ args = 0, pretend = 0, frame = 0
 371              		@ frame_needed = 0, uses_anonymous_args = 0
ARM GAS  C:\Users\wxpwx\AppData\Local\Temp\ccnHoi0x.s 			page 7


 372              		@ link register save eliminated.
 373 0000 014B     		ldr	r3, .L44
 374 0002 186B     		ldr	r0, [r3, #48]
 375 0004 7047     		bx	lr
 376              	.L45:
 377 0006 00BF     		.align	2
 378              	.L44:
 379 0008 00800140 		.word	1073840128
 381              		.section	.text.SDIO_ReadData,"ax",%progbits
 382              		.align	1
 383              		.global	SDIO_ReadData
 384              		.syntax unified
 385              		.thumb
 386              		.thumb_func
 388              	SDIO_ReadData:
 389              		@ args = 0, pretend = 0, frame = 0
 390              		@ frame_needed = 0, uses_anonymous_args = 0
 391              		@ link register save eliminated.
 392 0000 014B     		ldr	r3, .L47
 393 0002 D3F88000 		ldr	r0, [r3, #128]
 394 0006 7047     		bx	lr
 395              	.L48:
 396              		.align	2
 397              	.L47:
 398 0008 00800140 		.word	1073840128
 400              		.section	.text.SDIO_WriteData,"ax",%progbits
 401              		.align	1
 402              		.global	SDIO_WriteData
 403              		.syntax unified
 404              		.thumb
 405              		.thumb_func
 407              	SDIO_WriteData:
 408              		@ args = 0, pretend = 0, frame = 0
 409              		@ frame_needed = 0, uses_anonymous_args = 0
 410              		@ link register save eliminated.
 411 0000 014B     		ldr	r3, .L50
 412 0002 C3F88000 		str	r0, [r3, #128]
 413 0006 7047     		bx	lr
 414              	.L51:
 415              		.align	2
 416              	.L50:
 417 0008 00800140 		.word	1073840128
 419              		.section	.text.SDIO_GetFIFOCount,"ax",%progbits
 420              		.align	1
 421              		.global	SDIO_GetFIFOCount
 422              		.syntax unified
 423              		.thumb
 424              		.thumb_func
 426              	SDIO_GetFIFOCount:
 427              		@ args = 0, pretend = 0, frame = 0
 428              		@ frame_needed = 0, uses_anonymous_args = 0
 429              		@ link register save eliminated.
 430 0000 014B     		ldr	r3, .L53
 431 0002 986C     		ldr	r0, [r3, #72]
 432 0004 7047     		bx	lr
 433              	.L54:
 434 0006 00BF     		.align	2
ARM GAS  C:\Users\wxpwx\AppData\Local\Temp\ccnHoi0x.s 			page 8


 435              	.L53:
 436 0008 00800140 		.word	1073840128
 438              		.section	.text.SDIO_StartSDIOReadWait,"ax",%progbits
 439              		.align	1
 440              		.global	SDIO_StartSDIOReadWait
 441              		.syntax unified
 442              		.thumb
 443              		.thumb_func
 445              	SDIO_StartSDIOReadWait:
 446              		@ args = 0, pretend = 0, frame = 0
 447              		@ frame_needed = 0, uses_anonymous_args = 0
 448              		@ link register save eliminated.
 449 0000 014B     		ldr	r3, .L56
 450 0002 C3F8A005 		str	r0, [r3, #1440]
 451 0006 7047     		bx	lr
 452              	.L57:
 453              		.align	2
 454              	.L56:
 455 0008 00003042 		.word	1110441984
 457              		.section	.text.SDIO_StopSDIOReadWait,"ax",%progbits
 458              		.align	1
 459              		.global	SDIO_StopSDIOReadWait
 460              		.syntax unified
 461              		.thumb
 462              		.thumb_func
 464              	SDIO_StopSDIOReadWait:
 465              		@ args = 0, pretend = 0, frame = 0
 466              		@ frame_needed = 0, uses_anonymous_args = 0
 467              		@ link register save eliminated.
 468 0000 014B     		ldr	r3, .L59
 469 0002 C3F8A405 		str	r0, [r3, #1444]
 470 0006 7047     		bx	lr
 471              	.L60:
 472              		.align	2
 473              	.L59:
 474 0008 00003042 		.word	1110441984
 476              		.section	.text.SDIO_SetSDIOReadWaitMode,"ax",%progbits
 477              		.align	1
 478              		.global	SDIO_SetSDIOReadWaitMode
 479              		.syntax unified
 480              		.thumb
 481              		.thumb_func
 483              	SDIO_SetSDIOReadWaitMode:
 484              		@ args = 0, pretend = 0, frame = 0
 485              		@ frame_needed = 0, uses_anonymous_args = 0
 486              		@ link register save eliminated.
 487 0000 014B     		ldr	r3, .L62
 488 0002 C3F8A805 		str	r0, [r3, #1448]
 489 0006 7047     		bx	lr
 490              	.L63:
 491              		.align	2
 492              	.L62:
 493 0008 00003042 		.word	1110441984
 495              		.section	.text.SDIO_SetSDIOOperation,"ax",%progbits
 496              		.align	1
 497              		.global	SDIO_SetSDIOOperation
 498              		.syntax unified
ARM GAS  C:\Users\wxpwx\AppData\Local\Temp\ccnHoi0x.s 			page 9


 499              		.thumb
 500              		.thumb_func
 502              	SDIO_SetSDIOOperation:
 503              		@ args = 0, pretend = 0, frame = 0
 504              		@ frame_needed = 0, uses_anonymous_args = 0
 505              		@ link register save eliminated.
 506 0000 014B     		ldr	r3, .L65
 507 0002 C3F8AC05 		str	r0, [r3, #1452]
 508 0006 7047     		bx	lr
 509              	.L66:
 510              		.align	2
 511              	.L65:
 512 0008 00003042 		.word	1110441984
 514              		.section	.text.SDIO_SendSDIOSuspendCmd,"ax",%progbits
 515              		.align	1
 516              		.global	SDIO_SendSDIOSuspendCmd
 517              		.syntax unified
 518              		.thumb
 519              		.thumb_func
 521              	SDIO_SendSDIOSuspendCmd:
 522              		@ args = 0, pretend = 0, frame = 0
 523              		@ frame_needed = 0, uses_anonymous_args = 0
 524              		@ link register save eliminated.
 525 0000 014B     		ldr	r3, .L68
 526 0002 C3F8AC01 		str	r0, [r3, #428]
 527 0006 7047     		bx	lr
 528              	.L69:
 529              		.align	2
 530              	.L68:
 531 0008 00003042 		.word	1110441984
 533              		.section	.text.SDIO_CommandCompletionCmd,"ax",%progbits
 534              		.align	1
 535              		.global	SDIO_CommandCompletionCmd
 536              		.syntax unified
 537              		.thumb
 538              		.thumb_func
 540              	SDIO_CommandCompletionCmd:
 541              		@ args = 0, pretend = 0, frame = 0
 542              		@ frame_needed = 0, uses_anonymous_args = 0
 543              		@ link register save eliminated.
 544 0000 014B     		ldr	r3, .L71
 545 0002 C3F8B001 		str	r0, [r3, #432]
 546 0006 7047     		bx	lr
 547              	.L72:
 548              		.align	2
 549              	.L71:
 550 0008 00003042 		.word	1110441984
 552              		.section	.text.SDIO_CEATAITCmd,"ax",%progbits
 553              		.align	1
 554              		.global	SDIO_CEATAITCmd
 555              		.syntax unified
 556              		.thumb
 557              		.thumb_func
 559              	SDIO_CEATAITCmd:
 560              		@ args = 0, pretend = 0, frame = 0
 561              		@ frame_needed = 0, uses_anonymous_args = 0
 562              		@ link register save eliminated.
ARM GAS  C:\Users\wxpwx\AppData\Local\Temp\ccnHoi0x.s 			page 10


 563 0000 80F00100 		eor	r0, r0, #1
 564 0004 00F00100 		and	r0, r0, #1
 565 0008 014B     		ldr	r3, .L74
 566 000a C3F8B401 		str	r0, [r3, #436]
 567 000e 7047     		bx	lr
 568              	.L75:
 569              		.align	2
 570              	.L74:
 571 0010 00003042 		.word	1110441984
 573              		.section	.text.SDIO_SendCEATACmd,"ax",%progbits
 574              		.align	1
 575              		.global	SDIO_SendCEATACmd
 576              		.syntax unified
 577              		.thumb
 578              		.thumb_func
 580              	SDIO_SendCEATACmd:
 581              		@ args = 0, pretend = 0, frame = 0
 582              		@ frame_needed = 0, uses_anonymous_args = 0
 583              		@ link register save eliminated.
 584 0000 014B     		ldr	r3, .L77
 585 0002 C3F8B801 		str	r0, [r3, #440]
 586 0006 7047     		bx	lr
 587              	.L78:
 588              		.align	2
 589              	.L77:
 590 0008 00003042 		.word	1110441984
 592              		.section	.text.SDIO_GetFlagStatus,"ax",%progbits
 593              		.align	1
 594              		.global	SDIO_GetFlagStatus
 595              		.syntax unified
 596              		.thumb
 597              		.thumb_func
 599              	SDIO_GetFlagStatus:
 600              		@ args = 0, pretend = 0, frame = 0
 601              		@ frame_needed = 0, uses_anonymous_args = 0
 602              		@ link register save eliminated.
 603 0000 034B     		ldr	r3, .L82
 604 0002 5B6B     		ldr	r3, [r3, #52]
 605 0004 0342     		tst	r3, r0
 606 0006 01D0     		beq	.L81
 607 0008 0120     		movs	r0, #1
 608 000a 7047     		bx	lr
 609              	.L81:
 610 000c 0020     		movs	r0, #0
 611 000e 7047     		bx	lr
 612              	.L83:
 613              		.align	2
 614              	.L82:
 615 0010 00800140 		.word	1073840128
 617              		.section	.text.SDIO_ClearFlag,"ax",%progbits
 618              		.align	1
 619              		.global	SDIO_ClearFlag
 620              		.syntax unified
 621              		.thumb
 622              		.thumb_func
 624              	SDIO_ClearFlag:
 625              		@ args = 0, pretend = 0, frame = 0
ARM GAS  C:\Users\wxpwx\AppData\Local\Temp\ccnHoi0x.s 			page 11


 626              		@ frame_needed = 0, uses_anonymous_args = 0
 627              		@ link register save eliminated.
 628 0000 014B     		ldr	r3, .L85
 629 0002 9863     		str	r0, [r3, #56]
 630 0004 7047     		bx	lr
 631              	.L86:
 632 0006 00BF     		.align	2
 633              	.L85:
 634 0008 00800140 		.word	1073840128
 636              		.section	.text.SDIO_GetITStatus,"ax",%progbits
 637              		.align	1
 638              		.global	SDIO_GetITStatus
 639              		.syntax unified
 640              		.thumb
 641              		.thumb_func
 643              	SDIO_GetITStatus:
 644              		@ args = 0, pretend = 0, frame = 0
 645              		@ frame_needed = 0, uses_anonymous_args = 0
 646              		@ link register save eliminated.
 647 0000 034B     		ldr	r3, .L90
 648 0002 5B6B     		ldr	r3, [r3, #52]
 649 0004 0342     		tst	r3, r0
 650 0006 01D0     		beq	.L89
 651 0008 0120     		movs	r0, #1
 652 000a 7047     		bx	lr
 653              	.L89:
 654 000c 0020     		movs	r0, #0
 655 000e 7047     		bx	lr
 656              	.L91:
 657              		.align	2
 658              	.L90:
 659 0010 00800140 		.word	1073840128
 661              		.section	.text.SDIO_ClearITPendingBit,"ax",%progbits
 662              		.align	1
 663              		.global	SDIO_ClearITPendingBit
 664              		.syntax unified
 665              		.thumb
 666              		.thumb_func
 668              	SDIO_ClearITPendingBit:
 669              		@ args = 0, pretend = 0, frame = 0
 670              		@ frame_needed = 0, uses_anonymous_args = 0
 671              		@ link register save eliminated.
 672 0000 014B     		ldr	r3, .L93
 673 0002 9863     		str	r0, [r3, #56]
 674 0004 7047     		bx	lr
 675              	.L94:
 676 0006 00BF     		.align	2
 677              	.L93:
 678 0008 00800140 		.word	1073840128
 680              		.ident	"GCC: (GNU Arm Embedded Toolchain 10.3-2021.10) 10.3.1 20210824 (release)"
ARM GAS  C:\Users\wxpwx\AppData\Local\Temp\ccnHoi0x.s 			page 12

