ARM GAS  C:\Users\wxpwx\AppData\Local\Temp\cciP7bJU.s 			page 1


   1              		.cpu cortex-m3
   2              		.arch armv7-m
   3              		.fpu softvfp
   4              		.eabi_attribute 20, 1
   5              		.eabi_attribute 21, 1
   6              		.eabi_attribute 23, 3
   7              		.eabi_attribute 24, 1
   8              		.eabi_attribute 25, 1
   9              		.eabi_attribute 26, 1
  10              		.eabi_attribute 30, 1
  11              		.eabi_attribute 34, 1
  12              		.eabi_attribute 18, 4
  13              		.file	"stm32f10x_tim.c"
  14              		.text
  15              		.section	.text.TI1_Config,"ax",%progbits
  16              		.align	1
  17              		.syntax unified
  18              		.thumb
  19              		.thumb_func
  21              	TI1_Config:
  22              		@ args = 0, pretend = 0, frame = 0
  23              		@ frame_needed = 0, uses_anonymous_args = 0
  24 0000 00B5     		push	{lr}
  25 0002 B0F820E0 		ldrh	lr, [r0, #32]
  26 0006 1FFA8EFE 		uxth	lr, lr
  27 000a 2EF0010E 		bic	lr, lr, #1
  28 000e 1FFA8EFE 		uxth	lr, lr
  29 0012 A0F820E0 		strh	lr, [r0, #32]	@ movhi
  30 0016 B0F818C0 		ldrh	ip, [r0, #24]
  31 001a 1FFA8CFC 		uxth	ip, ip
  32 001e B0F820E0 		ldrh	lr, [r0, #32]
  33 0022 1FFA8EFE 		uxth	lr, lr
  34 0026 2CF0F30C 		bic	ip, ip, #243
  35 002a 1B01     		lsls	r3, r3, #4
  36 002c 9BB2     		uxth	r3, r3
  37 002e 1343     		orrs	r3, r3, r2
  38 0030 4CEA030C 		orr	ip, ip, r3
  39 0034 124A     		ldr	r2, .L6
  40 0036 9042     		cmp	r0, r2
  41 0038 17D0     		beq	.L2
  42 003a 124B     		ldr	r3, .L6+4
  43 003c 9842     		cmp	r0, r3
  44 003e 14D0     		beq	.L2
  45 0040 B0F1804F 		cmp	r0, #1073741824
  46 0044 11D0     		beq	.L2
  47 0046 A3F59833 		sub	r3, r3, #77824
  48 004a 9842     		cmp	r0, r3
  49 004c 0DD0     		beq	.L2
  50 004e 03F58063 		add	r3, r3, #1024
  51 0052 9842     		cmp	r0, r3
  52 0054 09D0     		beq	.L2
  53 0056 03F58063 		add	r3, r3, #1024
  54 005a 9842     		cmp	r0, r3
  55 005c 05D0     		beq	.L2
  56 005e 2EF00A03 		bic	r3, lr, #10
  57 0062 1943     		orrs	r1, r1, r3
  58 0064 41F00101 		orr	r1, r1, #1
ARM GAS  C:\Users\wxpwx\AppData\Local\Temp\cciP7bJU.s 			page 2


  59 0068 04E0     		b	.L4
  60              	.L2:
  61 006a 2EF00203 		bic	r3, lr, #2
  62 006e 1943     		orrs	r1, r1, r3
  63 0070 41F00101 		orr	r1, r1, #1
  64              	.L4:
  65 0074 A0F818C0 		strh	ip, [r0, #24]	@ movhi
  66 0078 0184     		strh	r1, [r0, #32]	@ movhi
  67 007a 5DF804FB 		ldr	pc, [sp], #4
  68              	.L7:
  69 007e 00BF     		.align	2
  70              	.L6:
  71 0080 002C0140 		.word	1073818624
  72 0084 00340140 		.word	1073820672
  74              		.section	.text.TI2_Config,"ax",%progbits
  75              		.align	1
  76              		.syntax unified
  77              		.thumb
  78              		.thumb_func
  80              	TI2_Config:
  81              		@ args = 0, pretend = 0, frame = 0
  82              		@ frame_needed = 0, uses_anonymous_args = 0
  83 0000 10B5     		push	{r4, lr}
  84 0002 B0F820C0 		ldrh	ip, [r0, #32]
  85 0006 1FFA8CFC 		uxth	ip, ip
  86 000a 2CF0100C 		bic	ip, ip, #16
  87 000e 1FFA8CFC 		uxth	ip, ip
  88 0012 A0F820C0 		strh	ip, [r0, #32]	@ movhi
  89 0016 B0F818E0 		ldrh	lr, [r0, #24]
  90 001a B0F820C0 		ldrh	ip, [r0, #32]
  91 001e 1FFA8CFC 		uxth	ip, ip
  92 0022 0C01     		lsls	r4, r1, #4
  93 0024 A4B2     		uxth	r4, r4
  94 0026 2EF4407E 		bic	lr, lr, #768
  95 002a 4FEA0E5E 		lsl	lr, lr, #20
  96 002e 4FEA1E5E 		lsr	lr, lr, #20
  97 0032 1B03     		lsls	r3, r3, #12
  98 0034 9BB2     		uxth	r3, r3
  99 0036 43EA0E03 		orr	r3, r3, lr
 100 003a 1202     		lsls	r2, r2, #8
 101 003c 92B2     		uxth	r2, r2
 102 003e 1A43     		orrs	r2, r2, r3
 103 0040 134B     		ldr	r3, .L13
 104 0042 9842     		cmp	r0, r3
 105 0044 19D0     		beq	.L9
 106 0046 03F50063 		add	r3, r3, #2048
 107 004a 9842     		cmp	r0, r3
 108 004c 15D0     		beq	.L9
 109 004e B0F1804F 		cmp	r0, #1073741824
 110 0052 12D0     		beq	.L9
 111 0054 A3F59833 		sub	r3, r3, #77824
 112 0058 9842     		cmp	r0, r3
 113 005a 0ED0     		beq	.L9
 114 005c 03F58063 		add	r3, r3, #1024
 115 0060 9842     		cmp	r0, r3
 116 0062 0AD0     		beq	.L9
 117 0064 03F58063 		add	r3, r3, #1024
ARM GAS  C:\Users\wxpwx\AppData\Local\Temp\cciP7bJU.s 			page 3


 118 0068 9842     		cmp	r0, r3
 119 006a 06D0     		beq	.L9
 120 006c 2CF0A00C 		bic	ip, ip, #160
 121 0070 4CEA010C 		orr	ip, ip, r1
 122 0074 4CF0100C 		orr	ip, ip, #16
 123 0078 05E0     		b	.L11
 124              	.L9:
 125 007a 2CF0200C 		bic	ip, ip, #32
 126 007e 4CEA040C 		orr	ip, ip, r4
 127 0082 4CF0100C 		orr	ip, ip, #16
 128              	.L11:
 129 0086 0283     		strh	r2, [r0, #24]	@ movhi
 130 0088 A0F820C0 		strh	ip, [r0, #32]	@ movhi
 131 008c 10BD     		pop	{r4, pc}
 132              	.L14:
 133 008e 00BF     		.align	2
 134              	.L13:
 135 0090 002C0140 		.word	1073818624
 137              		.section	.text.TI3_Config,"ax",%progbits
 138              		.align	1
 139              		.syntax unified
 140              		.thumb
 141              		.thumb_func
 143              	TI3_Config:
 144              		@ args = 0, pretend = 0, frame = 0
 145              		@ frame_needed = 0, uses_anonymous_args = 0
 146 0000 30B5     		push	{r4, r5, lr}
 147 0002 0C46     		mov	r4, r1
 148 0004 B0F820C0 		ldrh	ip, [r0, #32]
 149 0008 1FFA8CFC 		uxth	ip, ip
 150 000c 2CF4807C 		bic	ip, ip, #256
 151 0010 1FFA8CFC 		uxth	ip, ip
 152 0014 A0F820C0 		strh	ip, [r0, #32]	@ movhi
 153 0018 B0F81CE0 		ldrh	lr, [r0, #28]
 154 001c 1FFA8EFE 		uxth	lr, lr
 155 0020 018C     		ldrh	r1, [r0, #32]
 156 0022 89B2     		uxth	r1, r1
 157 0024 2502     		lsls	r5, r4, #8
 158 0026 ADB2     		uxth	r5, r5
 159 0028 2EF0F30E 		bic	lr, lr, #243
 160 002c 1B01     		lsls	r3, r3, #4
 161 002e 9BB2     		uxth	r3, r3
 162 0030 1343     		orrs	r3, r3, r2
 163 0032 4EEA0303 		orr	r3, lr, r3
 164 0036 124A     		ldr	r2, .L20
 165 0038 9042     		cmp	r0, r2
 166 003a 19D0     		beq	.L16
 167 003c 02F50062 		add	r2, r2, #2048
 168 0040 9042     		cmp	r0, r2
 169 0042 15D0     		beq	.L16
 170 0044 B0F1804F 		cmp	r0, #1073741824
 171 0048 12D0     		beq	.L16
 172 004a A2F59832 		sub	r2, r2, #77824
 173 004e 9042     		cmp	r0, r2
 174 0050 0ED0     		beq	.L16
 175 0052 02F58062 		add	r2, r2, #1024
 176 0056 9042     		cmp	r0, r2
ARM GAS  C:\Users\wxpwx\AppData\Local\Temp\cciP7bJU.s 			page 4


 177 0058 0AD0     		beq	.L16
 178 005a 02F58062 		add	r2, r2, #1024
 179 005e 9042     		cmp	r0, r2
 180 0060 06D0     		beq	.L16
 181 0062 21F4206C 		bic	ip, r1, #2560
 182 0066 4CEA0401 		orr	r1, ip, r4
 183 006a 41F48071 		orr	r1, r1, #256
 184 006e 04E0     		b	.L18
 185              	.L16:
 186 0070 21F40071 		bic	r1, r1, #512
 187 0074 2943     		orrs	r1, r1, r5
 188 0076 41F48071 		orr	r1, r1, #256
 189              	.L18:
 190 007a 8383     		strh	r3, [r0, #28]	@ movhi
 191 007c 0184     		strh	r1, [r0, #32]	@ movhi
 192 007e 30BD     		pop	{r4, r5, pc}
 193              	.L21:
 194              		.align	2
 195              	.L20:
 196 0080 002C0140 		.word	1073818624
 198              		.section	.text.TI4_Config,"ax",%progbits
 199              		.align	1
 200              		.syntax unified
 201              		.thumb
 202              		.thumb_func
 204              	TI4_Config:
 205              		@ args = 0, pretend = 0, frame = 0
 206              		@ frame_needed = 0, uses_anonymous_args = 0
 207 0000 10B5     		push	{r4, lr}
 208 0002 B0F820C0 		ldrh	ip, [r0, #32]
 209 0006 1FFA8CFC 		uxth	ip, ip
 210 000a 2CF4805C 		bic	ip, ip, #4096
 211 000e 1FFA8CFC 		uxth	ip, ip
 212 0012 A0F820C0 		strh	ip, [r0, #32]	@ movhi
 213 0016 B0F81CE0 		ldrh	lr, [r0, #28]
 214 001a B0F820C0 		ldrh	ip, [r0, #32]
 215 001e 1FFA8CFC 		uxth	ip, ip
 216 0022 0C03     		lsls	r4, r1, #12
 217 0024 A4B2     		uxth	r4, r4
 218 0026 2EF4407E 		bic	lr, lr, #768
 219 002a 4FEA0E5E 		lsl	lr, lr, #20
 220 002e 4FEA1E5E 		lsr	lr, lr, #20
 221 0032 1202     		lsls	r2, r2, #8
 222 0034 92B2     		uxth	r2, r2
 223 0036 42EA0E02 		orr	r2, r2, lr
 224 003a 1B03     		lsls	r3, r3, #12
 225 003c 9BB2     		uxth	r3, r3
 226 003e 1343     		orrs	r3, r3, r2
 227 0040 144A     		ldr	r2, .L27
 228 0042 9042     		cmp	r0, r2
 229 0044 1DD0     		beq	.L23
 230 0046 02F50062 		add	r2, r2, #2048
 231 004a 9042     		cmp	r0, r2
 232 004c 19D0     		beq	.L23
 233 004e B0F1804F 		cmp	r0, #1073741824
 234 0052 16D0     		beq	.L23
 235 0054 A2F59832 		sub	r2, r2, #77824
ARM GAS  C:\Users\wxpwx\AppData\Local\Temp\cciP7bJU.s 			page 5


 236 0058 9042     		cmp	r0, r2
 237 005a 12D0     		beq	.L23
 238 005c 02F58062 		add	r2, r2, #1024
 239 0060 9042     		cmp	r0, r2
 240 0062 0ED0     		beq	.L23
 241 0064 02F58062 		add	r2, r2, #1024
 242 0068 9042     		cmp	r0, r2
 243 006a 0AD0     		beq	.L23
 244 006c 2CF4007C 		bic	ip, ip, #512
 245 0070 4FEA4C4C 		lsl	ip, ip, #17
 246 0074 4FEA5C4C 		lsr	ip, ip, #17
 247 0078 41EA0C01 		orr	r1, r1, ip
 248 007c 41F48051 		orr	r1, r1, #4096
 249 0080 04E0     		b	.L25
 250              	.L23:
 251 0082 2CF40051 		bic	r1, ip, #8192
 252 0086 2143     		orrs	r1, r1, r4
 253 0088 41F48051 		orr	r1, r1, #4096
 254              	.L25:
 255 008c 8383     		strh	r3, [r0, #28]	@ movhi
 256 008e 0184     		strh	r1, [r0, #32]	@ movhi
 257 0090 10BD     		pop	{r4, pc}
 258              	.L28:
 259 0092 00BF     		.align	2
 260              	.L27:
 261 0094 002C0140 		.word	1073818624
 263              		.section	.text.TIM_DeInit,"ax",%progbits
 264              		.align	1
 265              		.global	TIM_DeInit
 266              		.syntax unified
 267              		.thumb
 268              		.thumb_func
 270              	TIM_DeInit:
 271              		@ args = 0, pretend = 0, frame = 0
 272              		@ frame_needed = 0, uses_anonymous_args = 0
 273 0000 08B5     		push	{r3, lr}
 274 0002 724B     		ldr	r3, .L64
 275 0004 9842     		cmp	r0, r3
 276 0006 40D0     		beq	.L48
 277 0008 B0F1804F 		cmp	r0, #1073741824
 278 000c 48D0     		beq	.L49
 279 000e 704B     		ldr	r3, .L64+4
 280 0010 9842     		cmp	r0, r3
 281 0012 4ED0     		beq	.L50
 282 0014 6F4B     		ldr	r3, .L64+8
 283 0016 9842     		cmp	r0, r3
 284 0018 54D0     		beq	.L51
 285 001a 6F4B     		ldr	r3, .L64+12
 286 001c 9842     		cmp	r0, r3
 287 001e 5AD0     		beq	.L52
 288 0020 6E4B     		ldr	r3, .L64+16
 289 0022 9842     		cmp	r0, r3
 290 0024 60D0     		beq	.L53
 291 0026 6E4B     		ldr	r3, .L64+20
 292 0028 9842     		cmp	r0, r3
 293 002a 66D0     		beq	.L54
 294 002c 6D4B     		ldr	r3, .L64+24
ARM GAS  C:\Users\wxpwx\AppData\Local\Temp\cciP7bJU.s 			page 6


 295 002e 9842     		cmp	r0, r3
 296 0030 6CD0     		beq	.L55
 297 0032 6D4B     		ldr	r3, .L64+28
 298 0034 9842     		cmp	r0, r3
 299 0036 74D0     		beq	.L56
 300 0038 6C4B     		ldr	r3, .L64+32
 301 003a 9842     		cmp	r0, r3
 302 003c 7CD0     		beq	.L57
 303 003e 6C4B     		ldr	r3, .L64+36
 304 0040 9842     		cmp	r0, r3
 305 0042 00F08480 		beq	.L58
 306 0046 6B4B     		ldr	r3, .L64+40
 307 0048 9842     		cmp	r0, r3
 308 004a 00F08B80 		beq	.L59
 309 004e 6A4B     		ldr	r3, .L64+44
 310 0050 9842     		cmp	r0, r3
 311 0052 00F09080 		beq	.L60
 312 0056 694B     		ldr	r3, .L64+48
 313 0058 9842     		cmp	r0, r3
 314 005a 00F09580 		beq	.L61
 315 005e 684B     		ldr	r3, .L64+52
 316 0060 9842     		cmp	r0, r3
 317 0062 00F09C80 		beq	.L62
 318 0066 674B     		ldr	r3, .L64+56
 319 0068 9842     		cmp	r0, r3
 320 006a 00F0A380 		beq	.L63
 321 006e 664B     		ldr	r3, .L64+60
 322 0070 9842     		cmp	r0, r3
 323 0072 14D1     		bne	.L29
 324 0074 0121     		movs	r1, #1
 325 0076 4FF48020 		mov	r0, #262144
 326 007a FFF7FEFF 		bl	RCC_APB2PeriphResetCmd
 327 007e 0021     		movs	r1, #0
 328 0080 4FF48020 		mov	r0, #262144
 329 0084 FFF7FEFF 		bl	RCC_APB2PeriphResetCmd
 330 0088 09E0     		b	.L29
 331              	.L48:
 332 008a 0121     		movs	r1, #1
 333 008c 4FF40060 		mov	r0, #2048
 334 0090 FFF7FEFF 		bl	RCC_APB2PeriphResetCmd
 335 0094 0021     		movs	r1, #0
 336 0096 4FF40060 		mov	r0, #2048
 337 009a FFF7FEFF 		bl	RCC_APB2PeriphResetCmd
 338              	.L29:
 339 009e 08BD     		pop	{r3, pc}
 340              	.L49:
 341 00a0 0121     		movs	r1, #1
 342 00a2 0846     		mov	r0, r1
 343 00a4 FFF7FEFF 		bl	RCC_APB1PeriphResetCmd
 344 00a8 0021     		movs	r1, #0
 345 00aa 0120     		movs	r0, #1
 346 00ac FFF7FEFF 		bl	RCC_APB1PeriphResetCmd
 347 00b0 F5E7     		b	.L29
 348              	.L50:
 349 00b2 0121     		movs	r1, #1
 350 00b4 0220     		movs	r0, #2
 351 00b6 FFF7FEFF 		bl	RCC_APB1PeriphResetCmd
ARM GAS  C:\Users\wxpwx\AppData\Local\Temp\cciP7bJU.s 			page 7


 352 00ba 0021     		movs	r1, #0
 353 00bc 0220     		movs	r0, #2
 354 00be FFF7FEFF 		bl	RCC_APB1PeriphResetCmd
 355 00c2 ECE7     		b	.L29
 356              	.L51:
 357 00c4 0121     		movs	r1, #1
 358 00c6 0420     		movs	r0, #4
 359 00c8 FFF7FEFF 		bl	RCC_APB1PeriphResetCmd
 360 00cc 0021     		movs	r1, #0
 361 00ce 0420     		movs	r0, #4
 362 00d0 FFF7FEFF 		bl	RCC_APB1PeriphResetCmd
 363 00d4 E3E7     		b	.L29
 364              	.L52:
 365 00d6 0121     		movs	r1, #1
 366 00d8 0820     		movs	r0, #8
 367 00da FFF7FEFF 		bl	RCC_APB1PeriphResetCmd
 368 00de 0021     		movs	r1, #0
 369 00e0 0820     		movs	r0, #8
 370 00e2 FFF7FEFF 		bl	RCC_APB1PeriphResetCmd
 371 00e6 DAE7     		b	.L29
 372              	.L53:
 373 00e8 0121     		movs	r1, #1
 374 00ea 1020     		movs	r0, #16
 375 00ec FFF7FEFF 		bl	RCC_APB1PeriphResetCmd
 376 00f0 0021     		movs	r1, #0
 377 00f2 1020     		movs	r0, #16
 378 00f4 FFF7FEFF 		bl	RCC_APB1PeriphResetCmd
 379 00f8 D1E7     		b	.L29
 380              	.L54:
 381 00fa 0121     		movs	r1, #1
 382 00fc 2020     		movs	r0, #32
 383 00fe FFF7FEFF 		bl	RCC_APB1PeriphResetCmd
 384 0102 0021     		movs	r1, #0
 385 0104 2020     		movs	r0, #32
 386 0106 FFF7FEFF 		bl	RCC_APB1PeriphResetCmd
 387 010a C8E7     		b	.L29
 388              	.L55:
 389 010c 0121     		movs	r1, #1
 390 010e 4FF40050 		mov	r0, #8192
 391 0112 FFF7FEFF 		bl	RCC_APB2PeriphResetCmd
 392 0116 0021     		movs	r1, #0
 393 0118 4FF40050 		mov	r0, #8192
 394 011c FFF7FEFF 		bl	RCC_APB2PeriphResetCmd
 395 0120 BDE7     		b	.L29
 396              	.L56:
 397 0122 0121     		movs	r1, #1
 398 0124 4FF40020 		mov	r0, #524288
 399 0128 FFF7FEFF 		bl	RCC_APB2PeriphResetCmd
 400 012c 0021     		movs	r1, #0
 401 012e 4FF40020 		mov	r0, #524288
 402 0132 FFF7FEFF 		bl	RCC_APB2PeriphResetCmd
 403 0136 B2E7     		b	.L29
 404              	.L57:
 405 0138 0121     		movs	r1, #1
 406 013a 4FF48010 		mov	r0, #1048576
 407 013e FFF7FEFF 		bl	RCC_APB2PeriphResetCmd
 408 0142 0021     		movs	r1, #0
ARM GAS  C:\Users\wxpwx\AppData\Local\Temp\cciP7bJU.s 			page 8


 409 0144 4FF48010 		mov	r0, #1048576
 410 0148 FFF7FEFF 		bl	RCC_APB2PeriphResetCmd
 411 014c A7E7     		b	.L29
 412              	.L58:
 413 014e 0121     		movs	r1, #1
 414 0150 4FF40010 		mov	r0, #2097152
 415 0154 FFF7FEFF 		bl	RCC_APB2PeriphResetCmd
 416 0158 0021     		movs	r1, #0
 417 015a 4FF40010 		mov	r0, #2097152
 418 015e FFF7FEFF 		bl	RCC_APB2PeriphResetCmd
 419 0162 9CE7     		b	.L29
 420              	.L59:
 421 0164 0121     		movs	r1, #1
 422 0166 4020     		movs	r0, #64
 423 0168 FFF7FEFF 		bl	RCC_APB1PeriphResetCmd
 424 016c 0021     		movs	r1, #0
 425 016e 4020     		movs	r0, #64
 426 0170 FFF7FEFF 		bl	RCC_APB1PeriphResetCmd
 427 0174 93E7     		b	.L29
 428              	.L60:
 429 0176 0121     		movs	r1, #1
 430 0178 8020     		movs	r0, #128
 431 017a FFF7FEFF 		bl	RCC_APB1PeriphResetCmd
 432 017e 0021     		movs	r1, #0
 433 0180 8020     		movs	r0, #128
 434 0182 FFF7FEFF 		bl	RCC_APB1PeriphResetCmd
 435 0186 8AE7     		b	.L29
 436              	.L61:
 437 0188 0121     		movs	r1, #1
 438 018a 4FF48070 		mov	r0, #256
 439 018e FFF7FEFF 		bl	RCC_APB1PeriphResetCmd
 440 0192 0021     		movs	r1, #0
 441 0194 4FF48070 		mov	r0, #256
 442 0198 FFF7FEFF 		bl	RCC_APB1PeriphResetCmd
 443 019c 7FE7     		b	.L29
 444              	.L62:
 445 019e 0121     		movs	r1, #1
 446 01a0 4FF48030 		mov	r0, #65536
 447 01a4 FFF7FEFF 		bl	RCC_APB2PeriphResetCmd
 448 01a8 0021     		movs	r1, #0
 449 01aa 4FF48030 		mov	r0, #65536
 450 01ae FFF7FEFF 		bl	RCC_APB2PeriphResetCmd
 451 01b2 74E7     		b	.L29
 452              	.L63:
 453 01b4 0121     		movs	r1, #1
 454 01b6 4FF40030 		mov	r0, #131072
 455 01ba FFF7FEFF 		bl	RCC_APB2PeriphResetCmd
 456 01be 0021     		movs	r1, #0
 457 01c0 4FF40030 		mov	r0, #131072
 458 01c4 FFF7FEFF 		bl	RCC_APB2PeriphResetCmd
 459 01c8 69E7     		b	.L29
 460              	.L65:
 461 01ca 00BF     		.align	2
 462              	.L64:
 463 01cc 002C0140 		.word	1073818624
 464 01d0 00040040 		.word	1073742848
 465 01d4 00080040 		.word	1073743872
ARM GAS  C:\Users\wxpwx\AppData\Local\Temp\cciP7bJU.s 			page 9


 466 01d8 000C0040 		.word	1073744896
 467 01dc 00100040 		.word	1073745920
 468 01e0 00140040 		.word	1073746944
 469 01e4 00340140 		.word	1073820672
 470 01e8 004C0140 		.word	1073826816
 471 01ec 00500140 		.word	1073827840
 472 01f0 00540140 		.word	1073828864
 473 01f4 00180040 		.word	1073747968
 474 01f8 001C0040 		.word	1073748992
 475 01fc 00200040 		.word	1073750016
 476 0200 00400140 		.word	1073823744
 477 0204 00440140 		.word	1073824768
 478 0208 00480140 		.word	1073825792
 480              		.section	.text.TIM_TimeBaseInit,"ax",%progbits
 481              		.align	1
 482              		.global	TIM_TimeBaseInit
 483              		.syntax unified
 484              		.thumb
 485              		.thumb_func
 487              	TIM_TimeBaseInit:
 488              		@ args = 0, pretend = 0, frame = 0
 489              		@ frame_needed = 0, uses_anonymous_args = 0
 490              		@ link register save eliminated.
 491 0000 0388     		ldrh	r3, [r0]
 492 0002 9BB2     		uxth	r3, r3
 493 0004 214A     		ldr	r2, .L72
 494 0006 9042     		cmp	r0, r2
 495 0008 12D0     		beq	.L67
 496 000a 02F50062 		add	r2, r2, #2048
 497 000e 9042     		cmp	r0, r2
 498 0010 0ED0     		beq	.L67
 499 0012 B0F1804F 		cmp	r0, #1073741824
 500 0016 0BD0     		beq	.L67
 501 0018 A2F59832 		sub	r2, r2, #77824
 502 001c 9042     		cmp	r0, r2
 503 001e 07D0     		beq	.L67
 504 0020 02F58062 		add	r2, r2, #1024
 505 0024 9042     		cmp	r0, r2
 506 0026 03D0     		beq	.L67
 507 0028 02F58062 		add	r2, r2, #1024
 508 002c 9042     		cmp	r0, r2
 509 002e 03D1     		bne	.L68
 510              	.L67:
 511 0030 23F07003 		bic	r3, r3, #112
 512 0034 4A88     		ldrh	r2, [r1, #2]
 513 0036 1343     		orrs	r3, r3, r2
 514              	.L68:
 515 0038 154A     		ldr	r2, .L72+4
 516 003a 9042     		cmp	r0, r2
 517 003c 08D0     		beq	.L69
 518 003e 02F58062 		add	r2, r2, #1024
 519 0042 9042     		cmp	r0, r2
 520 0044 04D0     		beq	.L69
 521 0046 23F44073 		bic	r3, r3, #768
 522 004a 9BB2     		uxth	r3, r3
 523 004c CA88     		ldrh	r2, [r1, #6]
 524 004e 1343     		orrs	r3, r3, r2
ARM GAS  C:\Users\wxpwx\AppData\Local\Temp\cciP7bJU.s 			page 10


 525              	.L69:
 526 0050 0380     		strh	r3, [r0]	@ movhi
 527 0052 8B88     		ldrh	r3, [r1, #4]
 528 0054 8385     		strh	r3, [r0, #44]	@ movhi
 529 0056 0B88     		ldrh	r3, [r1]
 530 0058 0385     		strh	r3, [r0, #40]	@ movhi
 531 005a 0C4B     		ldr	r3, .L72
 532 005c 9842     		cmp	r0, r3
 533 005e 0FD0     		beq	.L70
 534 0060 03F50063 		add	r3, r3, #2048
 535 0064 9842     		cmp	r0, r3
 536 0066 0BD0     		beq	.L70
 537 0068 03F54063 		add	r3, r3, #3072
 538 006c 9842     		cmp	r0, r3
 539 006e 07D0     		beq	.L70
 540 0070 03F58063 		add	r3, r3, #1024
 541 0074 9842     		cmp	r0, r3
 542 0076 03D0     		beq	.L70
 543 0078 03F58063 		add	r3, r3, #1024
 544 007c 9842     		cmp	r0, r3
 545 007e 01D1     		bne	.L71
 546              	.L70:
 547 0080 0B7A     		ldrb	r3, [r1, #8]	@ zero_extendqisi2
 548 0082 0386     		strh	r3, [r0, #48]	@ movhi
 549              	.L71:
 550 0084 0123     		movs	r3, #1
 551 0086 8382     		strh	r3, [r0, #20]	@ movhi
 552 0088 7047     		bx	lr
 553              	.L73:
 554 008a 00BF     		.align	2
 555              	.L72:
 556 008c 002C0140 		.word	1073818624
 557 0090 00100040 		.word	1073745920
 559              		.section	.text.TIM_OC1Init,"ax",%progbits
 560              		.align	1
 561              		.global	TIM_OC1Init
 562              		.syntax unified
 563              		.thumb
 564              		.thumb_func
 566              	TIM_OC1Init:
 567              		@ args = 0, pretend = 0, frame = 0
 568              		@ frame_needed = 0, uses_anonymous_args = 0
 569              		@ link register save eliminated.
 570 0000 10B4     		push	{r4}
 571 0002 038C     		ldrh	r3, [r0, #32]
 572 0004 9BB2     		uxth	r3, r3
 573 0006 23F00103 		bic	r3, r3, #1
 574 000a 9BB2     		uxth	r3, r3
 575 000c 0384     		strh	r3, [r0, #32]	@ movhi
 576 000e 038C     		ldrh	r3, [r0, #32]
 577 0010 9BB2     		uxth	r3, r3
 578 0012 B0F804C0 		ldrh	ip, [r0, #4]
 579 0016 1FFA8CFC 		uxth	ip, ip
 580 001a 028B     		ldrh	r2, [r0, #24]
 581 001c 92B2     		uxth	r2, r2
 582 001e 22F07302 		bic	r2, r2, #115
 583 0022 0C88     		ldrh	r4, [r1]
ARM GAS  C:\Users\wxpwx\AppData\Local\Temp\cciP7bJU.s 			page 11


 584 0024 2243     		orrs	r2, r2, r4
 585 0026 23F00203 		bic	r3, r3, #2
 586 002a 0C89     		ldrh	r4, [r1, #8]
 587 002c 2343     		orrs	r3, r3, r4
 588 002e 4C88     		ldrh	r4, [r1, #2]
 589 0030 2343     		orrs	r3, r3, r4
 590 0032 154C     		ldr	r4, .L78
 591 0034 A042     		cmp	r0, r4
 592 0036 0FD0     		beq	.L75
 593 0038 04F50064 		add	r4, r4, #2048
 594 003c A042     		cmp	r0, r4
 595 003e 0BD0     		beq	.L75
 596 0040 04F54064 		add	r4, r4, #3072
 597 0044 A042     		cmp	r0, r4
 598 0046 07D0     		beq	.L75
 599 0048 04F58064 		add	r4, r4, #1024
 600 004c A042     		cmp	r0, r4
 601 004e 03D0     		beq	.L75
 602 0050 04F58064 		add	r4, r4, #1024
 603 0054 A042     		cmp	r0, r4
 604 0056 0FD1     		bne	.L76
 605              	.L75:
 606 0058 23F00803 		bic	r3, r3, #8
 607 005c 4C89     		ldrh	r4, [r1, #10]
 608 005e 2343     		orrs	r3, r3, r4
 609 0060 23F00403 		bic	r3, r3, #4
 610 0064 8C88     		ldrh	r4, [r1, #4]
 611 0066 2343     		orrs	r3, r3, r4
 612 0068 2CF4407C 		bic	ip, ip, #768
 613 006c 8C89     		ldrh	r4, [r1, #12]
 614 006e 4CEA040C 		orr	ip, ip, r4
 615 0072 CC89     		ldrh	r4, [r1, #14]
 616 0074 44EA0C0C 		orr	ip, r4, ip
 617              	.L76:
 618 0078 A0F804C0 		strh	ip, [r0, #4]	@ movhi
 619 007c 0283     		strh	r2, [r0, #24]	@ movhi
 620 007e CA88     		ldrh	r2, [r1, #6]
 621 0080 8286     		strh	r2, [r0, #52]	@ movhi
 622 0082 0384     		strh	r3, [r0, #32]	@ movhi
 623 0084 10BC     		pop	{r4}
 624 0086 7047     		bx	lr
 625              	.L79:
 626              		.align	2
 627              	.L78:
 628 0088 002C0140 		.word	1073818624
 630              		.section	.text.TIM_OC2Init,"ax",%progbits
 631              		.align	1
 632              		.global	TIM_OC2Init
 633              		.syntax unified
 634              		.thumb
 635              		.thumb_func
 637              	TIM_OC2Init:
 638              		@ args = 0, pretend = 0, frame = 0
 639              		@ frame_needed = 0, uses_anonymous_args = 0
 640 0000 00B5     		push	{lr}
 641 0002 038C     		ldrh	r3, [r0, #32]
 642 0004 9BB2     		uxth	r3, r3
ARM GAS  C:\Users\wxpwx\AppData\Local\Temp\cciP7bJU.s 			page 12


 643 0006 23F01003 		bic	r3, r3, #16
 644 000a 9BB2     		uxth	r3, r3
 645 000c 0384     		strh	r3, [r0, #32]	@ movhi
 646 000e 038C     		ldrh	r3, [r0, #32]
 647 0010 9BB2     		uxth	r3, r3
 648 0012 B0F804E0 		ldrh	lr, [r0, #4]
 649 0016 1FFA8EFE 		uxth	lr, lr
 650 001a B0F818C0 		ldrh	ip, [r0, #24]
 651 001e 1FFA8CFC 		uxth	ip, ip
 652 0022 2CF4E64C 		bic	ip, ip, #29440
 653 0026 0A88     		ldrh	r2, [r1]
 654 0028 1202     		lsls	r2, r2, #8
 655 002a 92B2     		uxth	r2, r2
 656 002c 4CEA020C 		orr	ip, ip, r2
 657 0030 23F02003 		bic	r3, r3, #32
 658 0034 0A89     		ldrh	r2, [r1, #8]
 659 0036 1201     		lsls	r2, r2, #4
 660 0038 92B2     		uxth	r2, r2
 661 003a 1A43     		orrs	r2, r2, r3
 662 003c 4B88     		ldrh	r3, [r1, #2]
 663 003e 1B01     		lsls	r3, r3, #4
 664 0040 9BB2     		uxth	r3, r3
 665 0042 1343     		orrs	r3, r3, r2
 666 0044 134A     		ldr	r2, .L84
 667 0046 9042     		cmp	r0, r2
 668 0048 03D0     		beq	.L81
 669 004a 02F50062 		add	r2, r2, #2048
 670 004e 9042     		cmp	r0, r2
 671 0050 17D1     		bne	.L82
 672              	.L81:
 673 0052 23F08003 		bic	r3, r3, #128
 674 0056 4A89     		ldrh	r2, [r1, #10]
 675 0058 1201     		lsls	r2, r2, #4
 676 005a 92B2     		uxth	r2, r2
 677 005c 1343     		orrs	r3, r3, r2
 678 005e 23F04002 		bic	r2, r3, #64
 679 0062 8B88     		ldrh	r3, [r1, #4]
 680 0064 1B01     		lsls	r3, r3, #4
 681 0066 9BB2     		uxth	r3, r3
 682 0068 1343     		orrs	r3, r3, r2
 683 006a 2EF4406E 		bic	lr, lr, #3072
 684 006e 8A89     		ldrh	r2, [r1, #12]
 685 0070 9200     		lsls	r2, r2, #2
 686 0072 92B2     		uxth	r2, r2
 687 0074 4EEA020E 		orr	lr, lr, r2
 688 0078 CA89     		ldrh	r2, [r1, #14]
 689 007a 9200     		lsls	r2, r2, #2
 690 007c 92B2     		uxth	r2, r2
 691 007e 42EA0E0E 		orr	lr, r2, lr
 692              	.L82:
 693 0082 A0F804E0 		strh	lr, [r0, #4]	@ movhi
 694 0086 A0F818C0 		strh	ip, [r0, #24]	@ movhi
 695 008a CA88     		ldrh	r2, [r1, #6]
 696 008c 0287     		strh	r2, [r0, #56]	@ movhi
 697 008e 0384     		strh	r3, [r0, #32]	@ movhi
 698 0090 5DF804FB 		ldr	pc, [sp], #4
 699              	.L85:
ARM GAS  C:\Users\wxpwx\AppData\Local\Temp\cciP7bJU.s 			page 13


 700              		.align	2
 701              	.L84:
 702 0094 002C0140 		.word	1073818624
 704              		.section	.text.TIM_OC3Init,"ax",%progbits
 705              		.align	1
 706              		.global	TIM_OC3Init
 707              		.syntax unified
 708              		.thumb
 709              		.thumb_func
 711              	TIM_OC3Init:
 712              		@ args = 0, pretend = 0, frame = 0
 713              		@ frame_needed = 0, uses_anonymous_args = 0
 714 0000 00B5     		push	{lr}
 715 0002 038C     		ldrh	r3, [r0, #32]
 716 0004 9BB2     		uxth	r3, r3
 717 0006 23F48073 		bic	r3, r3, #256
 718 000a 9BB2     		uxth	r3, r3
 719 000c 0384     		strh	r3, [r0, #32]	@ movhi
 720 000e 038C     		ldrh	r3, [r0, #32]
 721 0010 9BB2     		uxth	r3, r3
 722 0012 B0F804E0 		ldrh	lr, [r0, #4]
 723 0016 1FFA8EFE 		uxth	lr, lr
 724 001a B0F81CC0 		ldrh	ip, [r0, #28]
 725 001e 1FFA8CFC 		uxth	ip, ip
 726 0022 2CF0730C 		bic	ip, ip, #115
 727 0026 0A88     		ldrh	r2, [r1]
 728 0028 4CEA020C 		orr	ip, ip, r2
 729 002c 23F40073 		bic	r3, r3, #512
 730 0030 0A89     		ldrh	r2, [r1, #8]
 731 0032 1202     		lsls	r2, r2, #8
 732 0034 92B2     		uxth	r2, r2
 733 0036 1A43     		orrs	r2, r2, r3
 734 0038 4B88     		ldrh	r3, [r1, #2]
 735 003a 1B02     		lsls	r3, r3, #8
 736 003c 9BB2     		uxth	r3, r3
 737 003e 1343     		orrs	r3, r3, r2
 738 0040 134A     		ldr	r2, .L90
 739 0042 9042     		cmp	r0, r2
 740 0044 03D0     		beq	.L87
 741 0046 02F50062 		add	r2, r2, #2048
 742 004a 9042     		cmp	r0, r2
 743 004c 17D1     		bne	.L88
 744              	.L87:
 745 004e 23F40063 		bic	r3, r3, #2048
 746 0052 4A89     		ldrh	r2, [r1, #10]
 747 0054 1202     		lsls	r2, r2, #8
 748 0056 92B2     		uxth	r2, r2
 749 0058 1343     		orrs	r3, r3, r2
 750 005a 23F48062 		bic	r2, r3, #1024
 751 005e 8B88     		ldrh	r3, [r1, #4]
 752 0060 1B02     		lsls	r3, r3, #8
 753 0062 9BB2     		uxth	r3, r3
 754 0064 1343     		orrs	r3, r3, r2
 755 0066 2EF4405E 		bic	lr, lr, #12288
 756 006a 8A89     		ldrh	r2, [r1, #12]
 757 006c 1201     		lsls	r2, r2, #4
 758 006e 92B2     		uxth	r2, r2
ARM GAS  C:\Users\wxpwx\AppData\Local\Temp\cciP7bJU.s 			page 14


 759 0070 4EEA020E 		orr	lr, lr, r2
 760 0074 CA89     		ldrh	r2, [r1, #14]
 761 0076 1201     		lsls	r2, r2, #4
 762 0078 92B2     		uxth	r2, r2
 763 007a 42EA0E0E 		orr	lr, r2, lr
 764              	.L88:
 765 007e A0F804E0 		strh	lr, [r0, #4]	@ movhi
 766 0082 A0F81CC0 		strh	ip, [r0, #28]	@ movhi
 767 0086 CA88     		ldrh	r2, [r1, #6]
 768 0088 8287     		strh	r2, [r0, #60]	@ movhi
 769 008a 0384     		strh	r3, [r0, #32]	@ movhi
 770 008c 5DF804FB 		ldr	pc, [sp], #4
 771              	.L91:
 772              		.align	2
 773              	.L90:
 774 0090 002C0140 		.word	1073818624
 776              		.section	.text.TIM_OC4Init,"ax",%progbits
 777              		.align	1
 778              		.global	TIM_OC4Init
 779              		.syntax unified
 780              		.thumb
 781              		.thumb_func
 783              	TIM_OC4Init:
 784              		@ args = 0, pretend = 0, frame = 0
 785              		@ frame_needed = 0, uses_anonymous_args = 0
 786 0000 10B5     		push	{r4, lr}
 787 0002 038C     		ldrh	r3, [r0, #32]
 788 0004 9BB2     		uxth	r3, r3
 789 0006 23F48053 		bic	r3, r3, #4096
 790 000a 9BB2     		uxth	r3, r3
 791 000c 0384     		strh	r3, [r0, #32]	@ movhi
 792 000e 038C     		ldrh	r3, [r0, #32]
 793 0010 9BB2     		uxth	r3, r3
 794 0012 B0F804E0 		ldrh	lr, [r0, #4]
 795 0016 1FFA8EFE 		uxth	lr, lr
 796 001a 828B     		ldrh	r2, [r0, #28]
 797 001c 92B2     		uxth	r2, r2
 798 001e 22F4E64C 		bic	ip, r2, #29440
 799 0022 0A88     		ldrh	r2, [r1]
 800 0024 1202     		lsls	r2, r2, #8
 801 0026 92B2     		uxth	r2, r2
 802 0028 4CEA0202 		orr	r2, ip, r2
 803 002c 23F40053 		bic	r3, r3, #8192
 804 0030 B1F808C0 		ldrh	ip, [r1, #8]
 805 0034 4FEA0C3C 		lsl	ip, ip, #12
 806 0038 1FFA8CFC 		uxth	ip, ip
 807 003c 43EA0C0C 		orr	ip, r3, ip
 808 0040 4B88     		ldrh	r3, [r1, #2]
 809 0042 1B03     		lsls	r3, r3, #12
 810 0044 9BB2     		uxth	r3, r3
 811 0046 43EA0C03 		orr	r3, r3, ip
 812 004a 0C4C     		ldr	r4, .L96
 813 004c A042     		cmp	r0, r4
 814 004e 03D0     		beq	.L93
 815 0050 04F50064 		add	r4, r4, #2048
 816 0054 A042     		cmp	r0, r4
 817 0056 09D1     		bne	.L94
ARM GAS  C:\Users\wxpwx\AppData\Local\Temp\cciP7bJU.s 			page 15


 818              	.L93:
 819 0058 2EF4804E 		bic	lr, lr, #16384
 820 005c B1F80CC0 		ldrh	ip, [r1, #12]
 821 0060 4FEA8C1C 		lsl	ip, ip, #6
 822 0064 1FFA8CFC 		uxth	ip, ip
 823 0068 4EEA0C0E 		orr	lr, lr, ip
 824              	.L94:
 825 006c A0F804E0 		strh	lr, [r0, #4]	@ movhi
 826 0070 8283     		strh	r2, [r0, #28]	@ movhi
 827 0072 CA88     		ldrh	r2, [r1, #6]
 828 0074 A0F84020 		strh	r2, [r0, #64]	@ movhi
 829 0078 0384     		strh	r3, [r0, #32]	@ movhi
 830 007a 10BD     		pop	{r4, pc}
 831              	.L97:
 832              		.align	2
 833              	.L96:
 834 007c 002C0140 		.word	1073818624
 836              		.section	.text.TIM_BDTRConfig,"ax",%progbits
 837              		.align	1
 838              		.global	TIM_BDTRConfig
 839              		.syntax unified
 840              		.thumb
 841              		.thumb_func
 843              	TIM_BDTRConfig:
 844              		@ args = 0, pretend = 0, frame = 0
 845              		@ frame_needed = 0, uses_anonymous_args = 0
 846 0000 70B5     		push	{r4, r5, r6, lr}
 847 0002 0D88     		ldrh	r5, [r1]
 848 0004 4E88     		ldrh	r6, [r1, #2]
 849 0006 8C88     		ldrh	r4, [r1, #4]
 850 0008 B1F806E0 		ldrh	lr, [r1, #6]
 851 000c B1F808C0 		ldrh	ip, [r1, #8]
 852 0010 4A89     		ldrh	r2, [r1, #10]
 853 0012 8B89     		ldrh	r3, [r1, #12]
 854 0014 45EA0601 		orr	r1, r5, r6
 855 0018 2143     		orrs	r1, r1, r4
 856 001a 4EEA0101 		orr	r1, lr, r1
 857 001e 4CEA0101 		orr	r1, ip, r1
 858 0022 0A43     		orrs	r2, r2, r1
 859 0024 1343     		orrs	r3, r3, r2
 860 0026 A0F84430 		strh	r3, [r0, #68]	@ movhi
 861 002a 70BD     		pop	{r4, r5, r6, pc}
 863              		.section	.text.TIM_TimeBaseStructInit,"ax",%progbits
 864              		.align	1
 865              		.global	TIM_TimeBaseStructInit
 866              		.syntax unified
 867              		.thumb
 868              		.thumb_func
 870              	TIM_TimeBaseStructInit:
 871              		@ args = 0, pretend = 0, frame = 0
 872              		@ frame_needed = 0, uses_anonymous_args = 0
 873              		@ link register save eliminated.
 874 0000 4FF6FF73 		movw	r3, #65535
 875 0004 8380     		strh	r3, [r0, #4]	@ movhi
 876 0006 0023     		movs	r3, #0
 877 0008 0380     		strh	r3, [r0]	@ movhi
 878 000a C380     		strh	r3, [r0, #6]	@ movhi
ARM GAS  C:\Users\wxpwx\AppData\Local\Temp\cciP7bJU.s 			page 16


 879 000c 4380     		strh	r3, [r0, #2]	@ movhi
 880 000e 0372     		strb	r3, [r0, #8]
 881 0010 7047     		bx	lr
 883              		.section	.text.TIM_OCStructInit,"ax",%progbits
 884              		.align	1
 885              		.global	TIM_OCStructInit
 886              		.syntax unified
 887              		.thumb
 888              		.thumb_func
 890              	TIM_OCStructInit:
 891              		@ args = 0, pretend = 0, frame = 0
 892              		@ frame_needed = 0, uses_anonymous_args = 0
 893              		@ link register save eliminated.
 894 0000 0023     		movs	r3, #0
 895 0002 0380     		strh	r3, [r0]	@ movhi
 896 0004 4380     		strh	r3, [r0, #2]	@ movhi
 897 0006 8380     		strh	r3, [r0, #4]	@ movhi
 898 0008 C380     		strh	r3, [r0, #6]	@ movhi
 899 000a 0381     		strh	r3, [r0, #8]	@ movhi
 900 000c 4381     		strh	r3, [r0, #10]	@ movhi
 901 000e 8381     		strh	r3, [r0, #12]	@ movhi
 902 0010 C381     		strh	r3, [r0, #14]	@ movhi
 903 0012 7047     		bx	lr
 905              		.section	.text.TIM_ICStructInit,"ax",%progbits
 906              		.align	1
 907              		.global	TIM_ICStructInit
 908              		.syntax unified
 909              		.thumb
 910              		.thumb_func
 912              	TIM_ICStructInit:
 913              		@ args = 0, pretend = 0, frame = 0
 914              		@ frame_needed = 0, uses_anonymous_args = 0
 915              		@ link register save eliminated.
 916 0000 0023     		movs	r3, #0
 917 0002 0380     		strh	r3, [r0]	@ movhi
 918 0004 4380     		strh	r3, [r0, #2]	@ movhi
 919 0006 0122     		movs	r2, #1
 920 0008 8280     		strh	r2, [r0, #4]	@ movhi
 921 000a C380     		strh	r3, [r0, #6]	@ movhi
 922 000c 0381     		strh	r3, [r0, #8]	@ movhi
 923 000e 7047     		bx	lr
 925              		.section	.text.TIM_BDTRStructInit,"ax",%progbits
 926              		.align	1
 927              		.global	TIM_BDTRStructInit
 928              		.syntax unified
 929              		.thumb
 930              		.thumb_func
 932              	TIM_BDTRStructInit:
 933              		@ args = 0, pretend = 0, frame = 0
 934              		@ frame_needed = 0, uses_anonymous_args = 0
 935              		@ link register save eliminated.
 936 0000 0023     		movs	r3, #0
 937 0002 0380     		strh	r3, [r0]	@ movhi
 938 0004 4380     		strh	r3, [r0, #2]	@ movhi
 939 0006 8380     		strh	r3, [r0, #4]	@ movhi
 940 0008 C380     		strh	r3, [r0, #6]	@ movhi
 941 000a 0381     		strh	r3, [r0, #8]	@ movhi
ARM GAS  C:\Users\wxpwx\AppData\Local\Temp\cciP7bJU.s 			page 17


 942 000c 4381     		strh	r3, [r0, #10]	@ movhi
 943 000e 8381     		strh	r3, [r0, #12]	@ movhi
 944 0010 7047     		bx	lr
 946              		.section	.text.TIM_Cmd,"ax",%progbits
 947              		.align	1
 948              		.global	TIM_Cmd
 949              		.syntax unified
 950              		.thumb
 951              		.thumb_func
 953              	TIM_Cmd:
 954              		@ args = 0, pretend = 0, frame = 0
 955              		@ frame_needed = 0, uses_anonymous_args = 0
 956              		@ link register save eliminated.
 957 0000 29B1     		cbz	r1, .L105
 958 0002 0388     		ldrh	r3, [r0]
 959 0004 9BB2     		uxth	r3, r3
 960 0006 43F00103 		orr	r3, r3, #1
 961 000a 0380     		strh	r3, [r0]	@ movhi
 962 000c 7047     		bx	lr
 963              	.L105:
 964 000e 0388     		ldrh	r3, [r0]
 965 0010 9BB2     		uxth	r3, r3
 966 0012 23F00103 		bic	r3, r3, #1
 967 0016 9BB2     		uxth	r3, r3
 968 0018 0380     		strh	r3, [r0]	@ movhi
 969 001a 7047     		bx	lr
 971              		.section	.text.TIM_CtrlPWMOutputs,"ax",%progbits
 972              		.align	1
 973              		.global	TIM_CtrlPWMOutputs
 974              		.syntax unified
 975              		.thumb
 976              		.thumb_func
 978              	TIM_CtrlPWMOutputs:
 979              		@ args = 0, pretend = 0, frame = 0
 980              		@ frame_needed = 0, uses_anonymous_args = 0
 981              		@ link register save eliminated.
 982 0000 49B1     		cbz	r1, .L108
 983 0002 B0F84430 		ldrh	r3, [r0, #68]
 984 0006 6FEA4343 		mvn	r3, r3, lsl #17
 985 000a 6FEA5343 		mvn	r3, r3, lsr #17
 986 000e 9BB2     		uxth	r3, r3
 987 0010 A0F84430 		strh	r3, [r0, #68]	@ movhi
 988 0014 7047     		bx	lr
 989              	.L108:
 990 0016 B0F84430 		ldrh	r3, [r0, #68]
 991 001a C3F30E03 		ubfx	r3, r3, #0, #15
 992 001e A0F84430 		strh	r3, [r0, #68]	@ movhi
 993 0022 7047     		bx	lr
 995              		.section	.text.TIM_ITConfig,"ax",%progbits
 996              		.align	1
 997              		.global	TIM_ITConfig
 998              		.syntax unified
 999              		.thumb
 1000              		.thumb_func
 1002              	TIM_ITConfig:
 1003              		@ args = 0, pretend = 0, frame = 0
 1004              		@ frame_needed = 0, uses_anonymous_args = 0
ARM GAS  C:\Users\wxpwx\AppData\Local\Temp\cciP7bJU.s 			page 18


 1005              		@ link register save eliminated.
 1006 0000 22B1     		cbz	r2, .L111
 1007 0002 8389     		ldrh	r3, [r0, #12]
 1008 0004 9BB2     		uxth	r3, r3
 1009 0006 1943     		orrs	r1, r1, r3
 1010 0008 8181     		strh	r1, [r0, #12]	@ movhi
 1011 000a 7047     		bx	lr
 1012              	.L111:
 1013 000c 8389     		ldrh	r3, [r0, #12]
 1014 000e C943     		mvns	r1, r1
 1015 0010 89B2     		uxth	r1, r1
 1016 0012 1940     		ands	r1, r1, r3
 1017 0014 8181     		strh	r1, [r0, #12]	@ movhi
 1018 0016 7047     		bx	lr
 1020              		.section	.text.TIM_GenerateEvent,"ax",%progbits
 1021              		.align	1
 1022              		.global	TIM_GenerateEvent
 1023              		.syntax unified
 1024              		.thumb
 1025              		.thumb_func
 1027              	TIM_GenerateEvent:
 1028              		@ args = 0, pretend = 0, frame = 0
 1029              		@ frame_needed = 0, uses_anonymous_args = 0
 1030              		@ link register save eliminated.
 1031 0000 8182     		strh	r1, [r0, #20]	@ movhi
 1032 0002 7047     		bx	lr
 1034              		.section	.text.TIM_DMAConfig,"ax",%progbits
 1035              		.align	1
 1036              		.global	TIM_DMAConfig
 1037              		.syntax unified
 1038              		.thumb
 1039              		.thumb_func
 1041              	TIM_DMAConfig:
 1042              		@ args = 0, pretend = 0, frame = 0
 1043              		@ frame_needed = 0, uses_anonymous_args = 0
 1044              		@ link register save eliminated.
 1045 0000 1143     		orrs	r1, r1, r2
 1046 0002 A0F84810 		strh	r1, [r0, #72]	@ movhi
 1047 0006 7047     		bx	lr
 1049              		.section	.text.TIM_DMACmd,"ax",%progbits
 1050              		.align	1
 1051              		.global	TIM_DMACmd
 1052              		.syntax unified
 1053              		.thumb
 1054              		.thumb_func
 1056              	TIM_DMACmd:
 1057              		@ args = 0, pretend = 0, frame = 0
 1058              		@ frame_needed = 0, uses_anonymous_args = 0
 1059              		@ link register save eliminated.
 1060 0000 22B1     		cbz	r2, .L116
 1061 0002 8389     		ldrh	r3, [r0, #12]
 1062 0004 9BB2     		uxth	r3, r3
 1063 0006 1943     		orrs	r1, r1, r3
 1064 0008 8181     		strh	r1, [r0, #12]	@ movhi
 1065 000a 7047     		bx	lr
 1066              	.L116:
 1067 000c 8389     		ldrh	r3, [r0, #12]
ARM GAS  C:\Users\wxpwx\AppData\Local\Temp\cciP7bJU.s 			page 19


 1068 000e C943     		mvns	r1, r1
 1069 0010 89B2     		uxth	r1, r1
 1070 0012 1940     		ands	r1, r1, r3
 1071 0014 8181     		strh	r1, [r0, #12]	@ movhi
 1072 0016 7047     		bx	lr
 1074              		.section	.text.TIM_InternalClockConfig,"ax",%progbits
 1075              		.align	1
 1076              		.global	TIM_InternalClockConfig
 1077              		.syntax unified
 1078              		.thumb
 1079              		.thumb_func
 1081              	TIM_InternalClockConfig:
 1082              		@ args = 0, pretend = 0, frame = 0
 1083              		@ frame_needed = 0, uses_anonymous_args = 0
 1084              		@ link register save eliminated.
 1085 0000 0389     		ldrh	r3, [r0, #8]
 1086 0002 9BB2     		uxth	r3, r3
 1087 0004 23F00703 		bic	r3, r3, #7
 1088 0008 9BB2     		uxth	r3, r3
 1089 000a 0381     		strh	r3, [r0, #8]	@ movhi
 1090 000c 7047     		bx	lr
 1092              		.section	.text.TIM_ETRConfig,"ax",%progbits
 1093              		.align	1
 1094              		.global	TIM_ETRConfig
 1095              		.syntax unified
 1096              		.thumb
 1097              		.thumb_func
 1099              	TIM_ETRConfig:
 1100              		@ args = 0, pretend = 0, frame = 0
 1101              		@ frame_needed = 0, uses_anonymous_args = 0
 1102              		@ link register save eliminated.
 1103 0000 B0F808C0 		ldrh	ip, [r0, #8]
 1104 0004 5FFA8CFC 		uxtb	ip, ip
 1105 0008 1B02     		lsls	r3, r3, #8
 1106 000a 9BB2     		uxth	r3, r3
 1107 000c 1343     		orrs	r3, r3, r2
 1108 000e 0B43     		orrs	r3, r3, r1
 1109 0010 43EA0C03 		orr	r3, r3, ip
 1110 0014 0381     		strh	r3, [r0, #8]	@ movhi
 1111 0016 7047     		bx	lr
 1113              		.section	.text.TIM_ETRClockMode1Config,"ax",%progbits
 1114              		.align	1
 1115              		.global	TIM_ETRClockMode1Config
 1116              		.syntax unified
 1117              		.thumb
 1118              		.thumb_func
 1120              	TIM_ETRClockMode1Config:
 1121              		@ args = 0, pretend = 0, frame = 0
 1122              		@ frame_needed = 0, uses_anonymous_args = 0
 1123 0000 10B5     		push	{r4, lr}
 1124 0002 0446     		mov	r4, r0
 1125 0004 FFF7FEFF 		bl	TIM_ETRConfig
 1126 0008 2389     		ldrh	r3, [r4, #8]
 1127 000a 9BB2     		uxth	r3, r3
 1128 000c 43F07703 		orr	r3, r3, #119
 1129 0010 2381     		strh	r3, [r4, #8]	@ movhi
 1130 0012 10BD     		pop	{r4, pc}
ARM GAS  C:\Users\wxpwx\AppData\Local\Temp\cciP7bJU.s 			page 20


 1132              		.section	.text.TIM_ETRClockMode2Config,"ax",%progbits
 1133              		.align	1
 1134              		.global	TIM_ETRClockMode2Config
 1135              		.syntax unified
 1136              		.thumb
 1137              		.thumb_func
 1139              	TIM_ETRClockMode2Config:
 1140              		@ args = 0, pretend = 0, frame = 0
 1141              		@ frame_needed = 0, uses_anonymous_args = 0
 1142 0000 10B5     		push	{r4, lr}
 1143 0002 0446     		mov	r4, r0
 1144 0004 FFF7FEFF 		bl	TIM_ETRConfig
 1145 0008 2389     		ldrh	r3, [r4, #8]
 1146 000a 9BB2     		uxth	r3, r3
 1147 000c 43F48043 		orr	r3, r3, #16384
 1148 0010 2381     		strh	r3, [r4, #8]	@ movhi
 1149 0012 10BD     		pop	{r4, pc}
 1151              		.section	.text.TIM_PrescalerConfig,"ax",%progbits
 1152              		.align	1
 1153              		.global	TIM_PrescalerConfig
 1154              		.syntax unified
 1155              		.thumb
 1156              		.thumb_func
 1158              	TIM_PrescalerConfig:
 1159              		@ args = 0, pretend = 0, frame = 0
 1160              		@ frame_needed = 0, uses_anonymous_args = 0
 1161              		@ link register save eliminated.
 1162 0000 0185     		strh	r1, [r0, #40]	@ movhi
 1163 0002 8282     		strh	r2, [r0, #20]	@ movhi
 1164 0004 7047     		bx	lr
 1166              		.section	.text.TIM_CounterModeConfig,"ax",%progbits
 1167              		.align	1
 1168              		.global	TIM_CounterModeConfig
 1169              		.syntax unified
 1170              		.thumb
 1171              		.thumb_func
 1173              	TIM_CounterModeConfig:
 1174              		@ args = 0, pretend = 0, frame = 0
 1175              		@ frame_needed = 0, uses_anonymous_args = 0
 1176              		@ link register save eliminated.
 1177 0000 0388     		ldrh	r3, [r0]
 1178 0002 9BB2     		uxth	r3, r3
 1179 0004 23F07003 		bic	r3, r3, #112
 1180 0008 0B43     		orrs	r3, r3, r1
 1181 000a 0380     		strh	r3, [r0]	@ movhi
 1182 000c 7047     		bx	lr
 1184              		.section	.text.TIM_SelectInputTrigger,"ax",%progbits
 1185              		.align	1
 1186              		.global	TIM_SelectInputTrigger
 1187              		.syntax unified
 1188              		.thumb
 1189              		.thumb_func
 1191              	TIM_SelectInputTrigger:
 1192              		@ args = 0, pretend = 0, frame = 0
 1193              		@ frame_needed = 0, uses_anonymous_args = 0
 1194              		@ link register save eliminated.
 1195 0000 0389     		ldrh	r3, [r0, #8]
ARM GAS  C:\Users\wxpwx\AppData\Local\Temp\cciP7bJU.s 			page 21


 1196 0002 9BB2     		uxth	r3, r3
 1197 0004 23F07003 		bic	r3, r3, #112
 1198 0008 0B43     		orrs	r3, r3, r1
 1199 000a 0381     		strh	r3, [r0, #8]	@ movhi
 1200 000c 7047     		bx	lr
 1202              		.section	.text.TIM_ITRxExternalClockConfig,"ax",%progbits
 1203              		.align	1
 1204              		.global	TIM_ITRxExternalClockConfig
 1205              		.syntax unified
 1206              		.thumb
 1207              		.thumb_func
 1209              	TIM_ITRxExternalClockConfig:
 1210              		@ args = 0, pretend = 0, frame = 0
 1211              		@ frame_needed = 0, uses_anonymous_args = 0
 1212 0000 10B5     		push	{r4, lr}
 1213 0002 0446     		mov	r4, r0
 1214 0004 FFF7FEFF 		bl	TIM_SelectInputTrigger
 1215 0008 2389     		ldrh	r3, [r4, #8]
 1216 000a 9BB2     		uxth	r3, r3
 1217 000c 43F00703 		orr	r3, r3, #7
 1218 0010 2381     		strh	r3, [r4, #8]	@ movhi
 1219 0012 10BD     		pop	{r4, pc}
 1221              		.section	.text.TIM_TIxExternalClockConfig,"ax",%progbits
 1222              		.align	1
 1223              		.global	TIM_TIxExternalClockConfig
 1224              		.syntax unified
 1225              		.thumb
 1226              		.thumb_func
 1228              	TIM_TIxExternalClockConfig:
 1229              		@ args = 0, pretend = 0, frame = 0
 1230              		@ frame_needed = 0, uses_anonymous_args = 0
 1231 0000 38B5     		push	{r3, r4, r5, lr}
 1232 0002 0446     		mov	r4, r0
 1233 0004 0D46     		mov	r5, r1
 1234 0006 1146     		mov	r1, r2
 1235 0008 602D     		cmp	r5, #96
 1236 000a 0CD0     		beq	.L133
 1237 000c 0122     		movs	r2, #1
 1238 000e FFF7FEFF 		bl	TI1_Config
 1239              	.L131:
 1240 0012 2946     		mov	r1, r5
 1241 0014 2046     		mov	r0, r4
 1242 0016 FFF7FEFF 		bl	TIM_SelectInputTrigger
 1243 001a 2389     		ldrh	r3, [r4, #8]
 1244 001c 9BB2     		uxth	r3, r3
 1245 001e 43F00703 		orr	r3, r3, #7
 1246 0022 2381     		strh	r3, [r4, #8]	@ movhi
 1247 0024 38BD     		pop	{r3, r4, r5, pc}
 1248              	.L133:
 1249 0026 0122     		movs	r2, #1
 1250 0028 FFF7FEFF 		bl	TI2_Config
 1251 002c F1E7     		b	.L131
 1253              		.section	.text.TIM_EncoderInterfaceConfig,"ax",%progbits
 1254              		.align	1
 1255              		.global	TIM_EncoderInterfaceConfig
 1256              		.syntax unified
 1257              		.thumb
ARM GAS  C:\Users\wxpwx\AppData\Local\Temp\cciP7bJU.s 			page 22


 1258              		.thumb_func
 1260              	TIM_EncoderInterfaceConfig:
 1261              		@ args = 0, pretend = 0, frame = 0
 1262              		@ frame_needed = 0, uses_anonymous_args = 0
 1263 0000 10B5     		push	{r4, lr}
 1264 0002 0489     		ldrh	r4, [r0, #8]
 1265 0004 A4B2     		uxth	r4, r4
 1266 0006 B0F818C0 		ldrh	ip, [r0, #24]
 1267 000a 1FFA8CFC 		uxth	ip, ip
 1268 000e B0F820E0 		ldrh	lr, [r0, #32]
 1269 0012 1FFA8EFE 		uxth	lr, lr
 1270 0016 24F00704 		bic	r4, r4, #7
 1271 001a 0C43     		orrs	r4, r4, r1
 1272 001c 2CF4407C 		bic	ip, ip, #768
 1273 0020 2CF0030C 		bic	ip, ip, #3
 1274 0024 4CF4807C 		orr	ip, ip, #256
 1275 0028 4CF0010C 		orr	ip, ip, #1
 1276 002c 2EF0220E 		bic	lr, lr, #34
 1277 0030 1B01     		lsls	r3, r3, #4
 1278 0032 9BB2     		uxth	r3, r3
 1279 0034 1343     		orrs	r3, r3, r2
 1280 0036 4EEA030E 		orr	lr, lr, r3
 1281 003a 0481     		strh	r4, [r0, #8]	@ movhi
 1282 003c A0F818C0 		strh	ip, [r0, #24]	@ movhi
 1283 0040 A0F820E0 		strh	lr, [r0, #32]	@ movhi
 1284 0044 10BD     		pop	{r4, pc}
 1286              		.section	.text.TIM_ForcedOC1Config,"ax",%progbits
 1287              		.align	1
 1288              		.global	TIM_ForcedOC1Config
 1289              		.syntax unified
 1290              		.thumb
 1291              		.thumb_func
 1293              	TIM_ForcedOC1Config:
 1294              		@ args = 0, pretend = 0, frame = 0
 1295              		@ frame_needed = 0, uses_anonymous_args = 0
 1296              		@ link register save eliminated.
 1297 0000 038B     		ldrh	r3, [r0, #24]
 1298 0002 9BB2     		uxth	r3, r3
 1299 0004 23F07003 		bic	r3, r3, #112
 1300 0008 0B43     		orrs	r3, r3, r1
 1301 000a 0383     		strh	r3, [r0, #24]	@ movhi
 1302 000c 7047     		bx	lr
 1304              		.section	.text.TIM_ForcedOC2Config,"ax",%progbits
 1305              		.align	1
 1306              		.global	TIM_ForcedOC2Config
 1307              		.syntax unified
 1308              		.thumb
 1309              		.thumb_func
 1311              	TIM_ForcedOC2Config:
 1312              		@ args = 0, pretend = 0, frame = 0
 1313              		@ frame_needed = 0, uses_anonymous_args = 0
 1314              		@ link register save eliminated.
 1315 0000 038B     		ldrh	r3, [r0, #24]
 1316 0002 9BB2     		uxth	r3, r3
 1317 0004 23F4E043 		bic	r3, r3, #28672
 1318 0008 0902     		lsls	r1, r1, #8
 1319 000a 89B2     		uxth	r1, r1
ARM GAS  C:\Users\wxpwx\AppData\Local\Temp\cciP7bJU.s 			page 23


 1320 000c 0B43     		orrs	r3, r3, r1
 1321 000e 0383     		strh	r3, [r0, #24]	@ movhi
 1322 0010 7047     		bx	lr
 1324              		.section	.text.TIM_ForcedOC3Config,"ax",%progbits
 1325              		.align	1
 1326              		.global	TIM_ForcedOC3Config
 1327              		.syntax unified
 1328              		.thumb
 1329              		.thumb_func
 1331              	TIM_ForcedOC3Config:
 1332              		@ args = 0, pretend = 0, frame = 0
 1333              		@ frame_needed = 0, uses_anonymous_args = 0
 1334              		@ link register save eliminated.
 1335 0000 838B     		ldrh	r3, [r0, #28]
 1336 0002 9BB2     		uxth	r3, r3
 1337 0004 23F07003 		bic	r3, r3, #112
 1338 0008 0B43     		orrs	r3, r3, r1
 1339 000a 8383     		strh	r3, [r0, #28]	@ movhi
 1340 000c 7047     		bx	lr
 1342              		.section	.text.TIM_ForcedOC4Config,"ax",%progbits
 1343              		.align	1
 1344              		.global	TIM_ForcedOC4Config
 1345              		.syntax unified
 1346              		.thumb
 1347              		.thumb_func
 1349              	TIM_ForcedOC4Config:
 1350              		@ args = 0, pretend = 0, frame = 0
 1351              		@ frame_needed = 0, uses_anonymous_args = 0
 1352              		@ link register save eliminated.
 1353 0000 838B     		ldrh	r3, [r0, #28]
 1354 0002 9BB2     		uxth	r3, r3
 1355 0004 23F4E043 		bic	r3, r3, #28672
 1356 0008 0902     		lsls	r1, r1, #8
 1357 000a 89B2     		uxth	r1, r1
 1358 000c 0B43     		orrs	r3, r3, r1
 1359 000e 8383     		strh	r3, [r0, #28]	@ movhi
 1360 0010 7047     		bx	lr
 1362              		.section	.text.TIM_ARRPreloadConfig,"ax",%progbits
 1363              		.align	1
 1364              		.global	TIM_ARRPreloadConfig
 1365              		.syntax unified
 1366              		.thumb
 1367              		.thumb_func
 1369              	TIM_ARRPreloadConfig:
 1370              		@ args = 0, pretend = 0, frame = 0
 1371              		@ frame_needed = 0, uses_anonymous_args = 0
 1372              		@ link register save eliminated.
 1373 0000 29B1     		cbz	r1, .L141
 1374 0002 0388     		ldrh	r3, [r0]
 1375 0004 9BB2     		uxth	r3, r3
 1376 0006 43F08003 		orr	r3, r3, #128
 1377 000a 0380     		strh	r3, [r0]	@ movhi
 1378 000c 7047     		bx	lr
 1379              	.L141:
 1380 000e 0388     		ldrh	r3, [r0]
 1381 0010 9BB2     		uxth	r3, r3
 1382 0012 23F08003 		bic	r3, r3, #128
ARM GAS  C:\Users\wxpwx\AppData\Local\Temp\cciP7bJU.s 			page 24


 1383 0016 9BB2     		uxth	r3, r3
 1384 0018 0380     		strh	r3, [r0]	@ movhi
 1385 001a 7047     		bx	lr
 1387              		.section	.text.TIM_SelectCOM,"ax",%progbits
 1388              		.align	1
 1389              		.global	TIM_SelectCOM
 1390              		.syntax unified
 1391              		.thumb
 1392              		.thumb_func
 1394              	TIM_SelectCOM:
 1395              		@ args = 0, pretend = 0, frame = 0
 1396              		@ frame_needed = 0, uses_anonymous_args = 0
 1397              		@ link register save eliminated.
 1398 0000 29B1     		cbz	r1, .L144
 1399 0002 8388     		ldrh	r3, [r0, #4]
 1400 0004 9BB2     		uxth	r3, r3
 1401 0006 43F00403 		orr	r3, r3, #4
 1402 000a 8380     		strh	r3, [r0, #4]	@ movhi
 1403 000c 7047     		bx	lr
 1404              	.L144:
 1405 000e 8388     		ldrh	r3, [r0, #4]
 1406 0010 9BB2     		uxth	r3, r3
 1407 0012 23F00403 		bic	r3, r3, #4
 1408 0016 9BB2     		uxth	r3, r3
 1409 0018 8380     		strh	r3, [r0, #4]	@ movhi
 1410 001a 7047     		bx	lr
 1412              		.section	.text.TIM_SelectCCDMA,"ax",%progbits
 1413              		.align	1
 1414              		.global	TIM_SelectCCDMA
 1415              		.syntax unified
 1416              		.thumb
 1417              		.thumb_func
 1419              	TIM_SelectCCDMA:
 1420              		@ args = 0, pretend = 0, frame = 0
 1421              		@ frame_needed = 0, uses_anonymous_args = 0
 1422              		@ link register save eliminated.
 1423 0000 29B1     		cbz	r1, .L147
 1424 0002 8388     		ldrh	r3, [r0, #4]
 1425 0004 9BB2     		uxth	r3, r3
 1426 0006 43F00803 		orr	r3, r3, #8
 1427 000a 8380     		strh	r3, [r0, #4]	@ movhi
 1428 000c 7047     		bx	lr
 1429              	.L147:
 1430 000e 8388     		ldrh	r3, [r0, #4]
 1431 0010 9BB2     		uxth	r3, r3
 1432 0012 23F00803 		bic	r3, r3, #8
 1433 0016 9BB2     		uxth	r3, r3
 1434 0018 8380     		strh	r3, [r0, #4]	@ movhi
 1435 001a 7047     		bx	lr
 1437              		.section	.text.TIM_CCPreloadControl,"ax",%progbits
 1438              		.align	1
 1439              		.global	TIM_CCPreloadControl
 1440              		.syntax unified
 1441              		.thumb
 1442              		.thumb_func
 1444              	TIM_CCPreloadControl:
 1445              		@ args = 0, pretend = 0, frame = 0
ARM GAS  C:\Users\wxpwx\AppData\Local\Temp\cciP7bJU.s 			page 25


 1446              		@ frame_needed = 0, uses_anonymous_args = 0
 1447              		@ link register save eliminated.
 1448 0000 29B1     		cbz	r1, .L150
 1449 0002 8388     		ldrh	r3, [r0, #4]
 1450 0004 9BB2     		uxth	r3, r3
 1451 0006 43F00103 		orr	r3, r3, #1
 1452 000a 8380     		strh	r3, [r0, #4]	@ movhi
 1453 000c 7047     		bx	lr
 1454              	.L150:
 1455 000e 8388     		ldrh	r3, [r0, #4]
 1456 0010 9BB2     		uxth	r3, r3
 1457 0012 23F00103 		bic	r3, r3, #1
 1458 0016 9BB2     		uxth	r3, r3
 1459 0018 8380     		strh	r3, [r0, #4]	@ movhi
 1460 001a 7047     		bx	lr
 1462              		.section	.text.TIM_OC1PreloadConfig,"ax",%progbits
 1463              		.align	1
 1464              		.global	TIM_OC1PreloadConfig
 1465              		.syntax unified
 1466              		.thumb
 1467              		.thumb_func
 1469              	TIM_OC1PreloadConfig:
 1470              		@ args = 0, pretend = 0, frame = 0
 1471              		@ frame_needed = 0, uses_anonymous_args = 0
 1472              		@ link register save eliminated.
 1473 0000 038B     		ldrh	r3, [r0, #24]
 1474 0002 9BB2     		uxth	r3, r3
 1475 0004 23F00803 		bic	r3, r3, #8
 1476 0008 0B43     		orrs	r3, r3, r1
 1477 000a 0383     		strh	r3, [r0, #24]	@ movhi
 1478 000c 7047     		bx	lr
 1480              		.section	.text.TIM_OC2PreloadConfig,"ax",%progbits
 1481              		.align	1
 1482              		.global	TIM_OC2PreloadConfig
 1483              		.syntax unified
 1484              		.thumb
 1485              		.thumb_func
 1487              	TIM_OC2PreloadConfig:
 1488              		@ args = 0, pretend = 0, frame = 0
 1489              		@ frame_needed = 0, uses_anonymous_args = 0
 1490              		@ link register save eliminated.
 1491 0000 038B     		ldrh	r3, [r0, #24]
 1492 0002 9BB2     		uxth	r3, r3
 1493 0004 23F40063 		bic	r3, r3, #2048
 1494 0008 0902     		lsls	r1, r1, #8
 1495 000a 89B2     		uxth	r1, r1
 1496 000c 0B43     		orrs	r3, r3, r1
 1497 000e 0383     		strh	r3, [r0, #24]	@ movhi
 1498 0010 7047     		bx	lr
 1500              		.section	.text.TIM_OC3PreloadConfig,"ax",%progbits
 1501              		.align	1
 1502              		.global	TIM_OC3PreloadConfig
 1503              		.syntax unified
 1504              		.thumb
 1505              		.thumb_func
 1507              	TIM_OC3PreloadConfig:
 1508              		@ args = 0, pretend = 0, frame = 0
ARM GAS  C:\Users\wxpwx\AppData\Local\Temp\cciP7bJU.s 			page 26


 1509              		@ frame_needed = 0, uses_anonymous_args = 0
 1510              		@ link register save eliminated.
 1511 0000 838B     		ldrh	r3, [r0, #28]
 1512 0002 9BB2     		uxth	r3, r3
 1513 0004 23F00803 		bic	r3, r3, #8
 1514 0008 0B43     		orrs	r3, r3, r1
 1515 000a 8383     		strh	r3, [r0, #28]	@ movhi
 1516 000c 7047     		bx	lr
 1518              		.section	.text.TIM_OC4PreloadConfig,"ax",%progbits
 1519              		.align	1
 1520              		.global	TIM_OC4PreloadConfig
 1521              		.syntax unified
 1522              		.thumb
 1523              		.thumb_func
 1525              	TIM_OC4PreloadConfig:
 1526              		@ args = 0, pretend = 0, frame = 0
 1527              		@ frame_needed = 0, uses_anonymous_args = 0
 1528              		@ link register save eliminated.
 1529 0000 838B     		ldrh	r3, [r0, #28]
 1530 0002 9BB2     		uxth	r3, r3
 1531 0004 23F40063 		bic	r3, r3, #2048
 1532 0008 0902     		lsls	r1, r1, #8
 1533 000a 89B2     		uxth	r1, r1
 1534 000c 0B43     		orrs	r3, r3, r1
 1535 000e 8383     		strh	r3, [r0, #28]	@ movhi
 1536 0010 7047     		bx	lr
 1538              		.section	.text.TIM_OC1FastConfig,"ax",%progbits
 1539              		.align	1
 1540              		.global	TIM_OC1FastConfig
 1541              		.syntax unified
 1542              		.thumb
 1543              		.thumb_func
 1545              	TIM_OC1FastConfig:
 1546              		@ args = 0, pretend = 0, frame = 0
 1547              		@ frame_needed = 0, uses_anonymous_args = 0
 1548              		@ link register save eliminated.
 1549 0000 038B     		ldrh	r3, [r0, #24]
 1550 0002 9BB2     		uxth	r3, r3
 1551 0004 23F00403 		bic	r3, r3, #4
 1552 0008 0B43     		orrs	r3, r3, r1
 1553 000a 0383     		strh	r3, [r0, #24]	@ movhi
 1554 000c 7047     		bx	lr
 1556              		.section	.text.TIM_OC2FastConfig,"ax",%progbits
 1557              		.align	1
 1558              		.global	TIM_OC2FastConfig
 1559              		.syntax unified
 1560              		.thumb
 1561              		.thumb_func
 1563              	TIM_OC2FastConfig:
 1564              		@ args = 0, pretend = 0, frame = 0
 1565              		@ frame_needed = 0, uses_anonymous_args = 0
 1566              		@ link register save eliminated.
 1567 0000 038B     		ldrh	r3, [r0, #24]
 1568 0002 9BB2     		uxth	r3, r3
 1569 0004 23F48063 		bic	r3, r3, #1024
 1570 0008 0902     		lsls	r1, r1, #8
 1571 000a 89B2     		uxth	r1, r1
ARM GAS  C:\Users\wxpwx\AppData\Local\Temp\cciP7bJU.s 			page 27


 1572 000c 0B43     		orrs	r3, r3, r1
 1573 000e 0383     		strh	r3, [r0, #24]	@ movhi
 1574 0010 7047     		bx	lr
 1576              		.section	.text.TIM_OC3FastConfig,"ax",%progbits
 1577              		.align	1
 1578              		.global	TIM_OC3FastConfig
 1579              		.syntax unified
 1580              		.thumb
 1581              		.thumb_func
 1583              	TIM_OC3FastConfig:
 1584              		@ args = 0, pretend = 0, frame = 0
 1585              		@ frame_needed = 0, uses_anonymous_args = 0
 1586              		@ link register save eliminated.
 1587 0000 838B     		ldrh	r3, [r0, #28]
 1588 0002 9BB2     		uxth	r3, r3
 1589 0004 23F00403 		bic	r3, r3, #4
 1590 0008 0B43     		orrs	r3, r3, r1
 1591 000a 8383     		strh	r3, [r0, #28]	@ movhi
 1592 000c 7047     		bx	lr
 1594              		.section	.text.TIM_OC4FastConfig,"ax",%progbits
 1595              		.align	1
 1596              		.global	TIM_OC4FastConfig
 1597              		.syntax unified
 1598              		.thumb
 1599              		.thumb_func
 1601              	TIM_OC4FastConfig:
 1602              		@ args = 0, pretend = 0, frame = 0
 1603              		@ frame_needed = 0, uses_anonymous_args = 0
 1604              		@ link register save eliminated.
 1605 0000 838B     		ldrh	r3, [r0, #28]
 1606 0002 9BB2     		uxth	r3, r3
 1607 0004 23F48063 		bic	r3, r3, #1024
 1608 0008 0902     		lsls	r1, r1, #8
 1609 000a 89B2     		uxth	r1, r1
 1610 000c 0B43     		orrs	r3, r3, r1
 1611 000e 8383     		strh	r3, [r0, #28]	@ movhi
 1612 0010 7047     		bx	lr
 1614              		.section	.text.TIM_ClearOC1Ref,"ax",%progbits
 1615              		.align	1
 1616              		.global	TIM_ClearOC1Ref
 1617              		.syntax unified
 1618              		.thumb
 1619              		.thumb_func
 1621              	TIM_ClearOC1Ref:
 1622              		@ args = 0, pretend = 0, frame = 0
 1623              		@ frame_needed = 0, uses_anonymous_args = 0
 1624              		@ link register save eliminated.
 1625 0000 038B     		ldrh	r3, [r0, #24]
 1626 0002 9BB2     		uxth	r3, r3
 1627 0004 23F08003 		bic	r3, r3, #128
 1628 0008 0B43     		orrs	r3, r3, r1
 1629 000a 0383     		strh	r3, [r0, #24]	@ movhi
 1630 000c 7047     		bx	lr
 1632              		.section	.text.TIM_ClearOC2Ref,"ax",%progbits
 1633              		.align	1
 1634              		.global	TIM_ClearOC2Ref
 1635              		.syntax unified
ARM GAS  C:\Users\wxpwx\AppData\Local\Temp\cciP7bJU.s 			page 28


 1636              		.thumb
 1637              		.thumb_func
 1639              	TIM_ClearOC2Ref:
 1640              		@ args = 0, pretend = 0, frame = 0
 1641              		@ frame_needed = 0, uses_anonymous_args = 0
 1642              		@ link register save eliminated.
 1643 0000 038B     		ldrh	r3, [r0, #24]
 1644 0002 C3F30E03 		ubfx	r3, r3, #0, #15
 1645 0006 0902     		lsls	r1, r1, #8
 1646 0008 89B2     		uxth	r1, r1
 1647 000a 1943     		orrs	r1, r1, r3
 1648 000c 0183     		strh	r1, [r0, #24]	@ movhi
 1649 000e 7047     		bx	lr
 1651              		.section	.text.TIM_ClearOC3Ref,"ax",%progbits
 1652              		.align	1
 1653              		.global	TIM_ClearOC3Ref
 1654              		.syntax unified
 1655              		.thumb
 1656              		.thumb_func
 1658              	TIM_ClearOC3Ref:
 1659              		@ args = 0, pretend = 0, frame = 0
 1660              		@ frame_needed = 0, uses_anonymous_args = 0
 1661              		@ link register save eliminated.
 1662 0000 838B     		ldrh	r3, [r0, #28]
 1663 0002 9BB2     		uxth	r3, r3
 1664 0004 23F08003 		bic	r3, r3, #128
 1665 0008 0B43     		orrs	r3, r3, r1
 1666 000a 8383     		strh	r3, [r0, #28]	@ movhi
 1667 000c 7047     		bx	lr
 1669              		.section	.text.TIM_ClearOC4Ref,"ax",%progbits
 1670              		.align	1
 1671              		.global	TIM_ClearOC4Ref
 1672              		.syntax unified
 1673              		.thumb
 1674              		.thumb_func
 1676              	TIM_ClearOC4Ref:
 1677              		@ args = 0, pretend = 0, frame = 0
 1678              		@ frame_needed = 0, uses_anonymous_args = 0
 1679              		@ link register save eliminated.
 1680 0000 838B     		ldrh	r3, [r0, #28]
 1681 0002 C3F30E03 		ubfx	r3, r3, #0, #15
 1682 0006 0902     		lsls	r1, r1, #8
 1683 0008 89B2     		uxth	r1, r1
 1684 000a 1943     		orrs	r1, r1, r3
 1685 000c 8183     		strh	r1, [r0, #28]	@ movhi
 1686 000e 7047     		bx	lr
 1688              		.section	.text.TIM_OC1PolarityConfig,"ax",%progbits
 1689              		.align	1
 1690              		.global	TIM_OC1PolarityConfig
 1691              		.syntax unified
 1692              		.thumb
 1693              		.thumb_func
 1695              	TIM_OC1PolarityConfig:
 1696              		@ args = 0, pretend = 0, frame = 0
 1697              		@ frame_needed = 0, uses_anonymous_args = 0
 1698              		@ link register save eliminated.
 1699 0000 038C     		ldrh	r3, [r0, #32]
ARM GAS  C:\Users\wxpwx\AppData\Local\Temp\cciP7bJU.s 			page 29


 1700 0002 9BB2     		uxth	r3, r3
 1701 0004 23F00203 		bic	r3, r3, #2
 1702 0008 0B43     		orrs	r3, r3, r1
 1703 000a 0384     		strh	r3, [r0, #32]	@ movhi
 1704 000c 7047     		bx	lr
 1706              		.section	.text.TIM_OC1NPolarityConfig,"ax",%progbits
 1707              		.align	1
 1708              		.global	TIM_OC1NPolarityConfig
 1709              		.syntax unified
 1710              		.thumb
 1711              		.thumb_func
 1713              	TIM_OC1NPolarityConfig:
 1714              		@ args = 0, pretend = 0, frame = 0
 1715              		@ frame_needed = 0, uses_anonymous_args = 0
 1716              		@ link register save eliminated.
 1717 0000 038C     		ldrh	r3, [r0, #32]
 1718 0002 9BB2     		uxth	r3, r3
 1719 0004 23F00803 		bic	r3, r3, #8
 1720 0008 0B43     		orrs	r3, r3, r1
 1721 000a 0384     		strh	r3, [r0, #32]	@ movhi
 1722 000c 7047     		bx	lr
 1724              		.section	.text.TIM_OC2PolarityConfig,"ax",%progbits
 1725              		.align	1
 1726              		.global	TIM_OC2PolarityConfig
 1727              		.syntax unified
 1728              		.thumb
 1729              		.thumb_func
 1731              	TIM_OC2PolarityConfig:
 1732              		@ args = 0, pretend = 0, frame = 0
 1733              		@ frame_needed = 0, uses_anonymous_args = 0
 1734              		@ link register save eliminated.
 1735 0000 038C     		ldrh	r3, [r0, #32]
 1736 0002 9BB2     		uxth	r3, r3
 1737 0004 23F02003 		bic	r3, r3, #32
 1738 0008 0901     		lsls	r1, r1, #4
 1739 000a 89B2     		uxth	r1, r1
 1740 000c 0B43     		orrs	r3, r3, r1
 1741 000e 0384     		strh	r3, [r0, #32]	@ movhi
 1742 0010 7047     		bx	lr
 1744              		.section	.text.TIM_OC2NPolarityConfig,"ax",%progbits
 1745              		.align	1
 1746              		.global	TIM_OC2NPolarityConfig
 1747              		.syntax unified
 1748              		.thumb
 1749              		.thumb_func
 1751              	TIM_OC2NPolarityConfig:
 1752              		@ args = 0, pretend = 0, frame = 0
 1753              		@ frame_needed = 0, uses_anonymous_args = 0
 1754              		@ link register save eliminated.
 1755 0000 038C     		ldrh	r3, [r0, #32]
 1756 0002 9BB2     		uxth	r3, r3
 1757 0004 23F08003 		bic	r3, r3, #128
 1758 0008 0901     		lsls	r1, r1, #4
 1759 000a 89B2     		uxth	r1, r1
 1760 000c 0B43     		orrs	r3, r3, r1
 1761 000e 0384     		strh	r3, [r0, #32]	@ movhi
 1762 0010 7047     		bx	lr
ARM GAS  C:\Users\wxpwx\AppData\Local\Temp\cciP7bJU.s 			page 30


 1764              		.section	.text.TIM_OC3PolarityConfig,"ax",%progbits
 1765              		.align	1
 1766              		.global	TIM_OC3PolarityConfig
 1767              		.syntax unified
 1768              		.thumb
 1769              		.thumb_func
 1771              	TIM_OC3PolarityConfig:
 1772              		@ args = 0, pretend = 0, frame = 0
 1773              		@ frame_needed = 0, uses_anonymous_args = 0
 1774              		@ link register save eliminated.
 1775 0000 038C     		ldrh	r3, [r0, #32]
 1776 0002 9BB2     		uxth	r3, r3
 1777 0004 23F40073 		bic	r3, r3, #512
 1778 0008 0902     		lsls	r1, r1, #8
 1779 000a 89B2     		uxth	r1, r1
 1780 000c 0B43     		orrs	r3, r3, r1
 1781 000e 0384     		strh	r3, [r0, #32]	@ movhi
 1782 0010 7047     		bx	lr
 1784              		.section	.text.TIM_OC3NPolarityConfig,"ax",%progbits
 1785              		.align	1
 1786              		.global	TIM_OC3NPolarityConfig
 1787              		.syntax unified
 1788              		.thumb
 1789              		.thumb_func
 1791              	TIM_OC3NPolarityConfig:
 1792              		@ args = 0, pretend = 0, frame = 0
 1793              		@ frame_needed = 0, uses_anonymous_args = 0
 1794              		@ link register save eliminated.
 1795 0000 038C     		ldrh	r3, [r0, #32]
 1796 0002 9BB2     		uxth	r3, r3
 1797 0004 23F40063 		bic	r3, r3, #2048
 1798 0008 0902     		lsls	r1, r1, #8
 1799 000a 89B2     		uxth	r1, r1
 1800 000c 0B43     		orrs	r3, r3, r1
 1801 000e 0384     		strh	r3, [r0, #32]	@ movhi
 1802 0010 7047     		bx	lr
 1804              		.section	.text.TIM_OC4PolarityConfig,"ax",%progbits
 1805              		.align	1
 1806              		.global	TIM_OC4PolarityConfig
 1807              		.syntax unified
 1808              		.thumb
 1809              		.thumb_func
 1811              	TIM_OC4PolarityConfig:
 1812              		@ args = 0, pretend = 0, frame = 0
 1813              		@ frame_needed = 0, uses_anonymous_args = 0
 1814              		@ link register save eliminated.
 1815 0000 038C     		ldrh	r3, [r0, #32]
 1816 0002 9BB2     		uxth	r3, r3
 1817 0004 23F40053 		bic	r3, r3, #8192
 1818 0008 0903     		lsls	r1, r1, #12
 1819 000a 89B2     		uxth	r1, r1
 1820 000c 0B43     		orrs	r3, r3, r1
 1821 000e 0384     		strh	r3, [r0, #32]	@ movhi
 1822 0010 7047     		bx	lr
 1824              		.section	.text.TIM_CCxCmd,"ax",%progbits
 1825              		.align	1
 1826              		.global	TIM_CCxCmd
ARM GAS  C:\Users\wxpwx\AppData\Local\Temp\cciP7bJU.s 			page 31


 1827              		.syntax unified
 1828              		.thumb
 1829              		.thumb_func
 1831              	TIM_CCxCmd:
 1832              		@ args = 0, pretend = 0, frame = 0
 1833              		@ frame_needed = 0, uses_anonymous_args = 0
 1834              		@ link register save eliminated.
 1835 0000 0123     		movs	r3, #1
 1836 0002 8B40     		lsls	r3, r3, r1
 1837 0004 9BB2     		uxth	r3, r3
 1838 0006 B0F820C0 		ldrh	ip, [r0, #32]
 1839 000a DB43     		mvns	r3, r3
 1840 000c 9BB2     		uxth	r3, r3
 1841 000e 03EA0C03 		and	r3, r3, ip
 1842 0012 0384     		strh	r3, [r0, #32]	@ movhi
 1843 0014 038C     		ldrh	r3, [r0, #32]
 1844 0016 9BB2     		uxth	r3, r3
 1845 0018 8A40     		lsls	r2, r2, r1
 1846 001a 92B2     		uxth	r2, r2
 1847 001c 1343     		orrs	r3, r3, r2
 1848 001e 0384     		strh	r3, [r0, #32]	@ movhi
 1849 0020 7047     		bx	lr
 1851              		.section	.text.TIM_CCxNCmd,"ax",%progbits
 1852              		.align	1
 1853              		.global	TIM_CCxNCmd
 1854              		.syntax unified
 1855              		.thumb
 1856              		.thumb_func
 1858              	TIM_CCxNCmd:
 1859              		@ args = 0, pretend = 0, frame = 0
 1860              		@ frame_needed = 0, uses_anonymous_args = 0
 1861              		@ link register save eliminated.
 1862 0000 0423     		movs	r3, #4
 1863 0002 8B40     		lsls	r3, r3, r1
 1864 0004 9BB2     		uxth	r3, r3
 1865 0006 B0F820C0 		ldrh	ip, [r0, #32]
 1866 000a DB43     		mvns	r3, r3
 1867 000c 9BB2     		uxth	r3, r3
 1868 000e 03EA0C03 		and	r3, r3, ip
 1869 0012 0384     		strh	r3, [r0, #32]	@ movhi
 1870 0014 038C     		ldrh	r3, [r0, #32]
 1871 0016 9BB2     		uxth	r3, r3
 1872 0018 8A40     		lsls	r2, r2, r1
 1873 001a 92B2     		uxth	r2, r2
 1874 001c 1343     		orrs	r3, r3, r2
 1875 001e 0384     		strh	r3, [r0, #32]	@ movhi
 1876 0020 7047     		bx	lr
 1878              		.section	.text.TIM_SelectOCxM,"ax",%progbits
 1879              		.align	1
 1880              		.global	TIM_SelectOCxM
 1881              		.syntax unified
 1882              		.thumb
 1883              		.thumb_func
 1885              	TIM_SelectOCxM:
 1886              		@ args = 0, pretend = 0, frame = 0
 1887              		@ frame_needed = 0, uses_anonymous_args = 0
 1888 0000 00B5     		push	{lr}
ARM GAS  C:\Users\wxpwx\AppData\Local\Temp\cciP7bJU.s 			page 32


 1889 0002 00F1180C 		add	ip, r0, #24
 1890 0006 0123     		movs	r3, #1
 1891 0008 8B40     		lsls	r3, r3, r1
 1892 000a 9BB2     		uxth	r3, r3
 1893 000c B0F820E0 		ldrh	lr, [r0, #32]
 1894 0010 DB43     		mvns	r3, r3
 1895 0012 9BB2     		uxth	r3, r3
 1896 0014 03EA0E03 		and	r3, r3, lr
 1897 0018 0384     		strh	r3, [r0, #32]	@ movhi
 1898 001a 91B1     		cbz	r1, .L174
 1899 001c 0829     		cmp	r1, #8
 1900 001e 10D0     		beq	.L174
 1901 0020 0439     		subs	r1, r1, #4
 1902 0022 C1F34E01 		ubfx	r1, r1, #1, #15
 1903 0026 51F80C30 		ldr	r3, [r1, ip]
 1904 002a 23F4E043 		bic	r3, r3, #28672
 1905 002e 41F80C30 		str	r3, [r1, ip]
 1906 0032 51F80C30 		ldr	r3, [r1, ip]
 1907 0036 1202     		lsls	r2, r2, #8
 1908 0038 92B2     		uxth	r2, r2
 1909 003a 1A43     		orrs	r2, r2, r3
 1910 003c 41F80C20 		str	r2, [r1, ip]
 1911 0040 0BE0     		b	.L173
 1912              	.L174:
 1913 0042 4908     		lsrs	r1, r1, #1
 1914 0044 51F80C30 		ldr	r3, [r1, ip]
 1915 0048 23F07003 		bic	r3, r3, #112
 1916 004c 41F80C30 		str	r3, [r1, ip]
 1917 0050 51F80C30 		ldr	r3, [r1, ip]
 1918 0054 1A43     		orrs	r2, r2, r3
 1919 0056 41F80C20 		str	r2, [r1, ip]
 1920              	.L173:
 1921 005a 5DF804FB 		ldr	pc, [sp], #4
 1923              		.section	.text.TIM_UpdateDisableConfig,"ax",%progbits
 1924              		.align	1
 1925              		.global	TIM_UpdateDisableConfig
 1926              		.syntax unified
 1927              		.thumb
 1928              		.thumb_func
 1930              	TIM_UpdateDisableConfig:
 1931              		@ args = 0, pretend = 0, frame = 0
 1932              		@ frame_needed = 0, uses_anonymous_args = 0
 1933              		@ link register save eliminated.
 1934 0000 29B1     		cbz	r1, .L179
 1935 0002 0388     		ldrh	r3, [r0]
 1936 0004 9BB2     		uxth	r3, r3
 1937 0006 43F00203 		orr	r3, r3, #2
 1938 000a 0380     		strh	r3, [r0]	@ movhi
 1939 000c 7047     		bx	lr
 1940              	.L179:
 1941 000e 0388     		ldrh	r3, [r0]
 1942 0010 9BB2     		uxth	r3, r3
 1943 0012 23F00203 		bic	r3, r3, #2
 1944 0016 9BB2     		uxth	r3, r3
 1945 0018 0380     		strh	r3, [r0]	@ movhi
 1946 001a 7047     		bx	lr
 1948              		.section	.text.TIM_UpdateRequestConfig,"ax",%progbits
ARM GAS  C:\Users\wxpwx\AppData\Local\Temp\cciP7bJU.s 			page 33


 1949              		.align	1
 1950              		.global	TIM_UpdateRequestConfig
 1951              		.syntax unified
 1952              		.thumb
 1953              		.thumb_func
 1955              	TIM_UpdateRequestConfig:
 1956              		@ args = 0, pretend = 0, frame = 0
 1957              		@ frame_needed = 0, uses_anonymous_args = 0
 1958              		@ link register save eliminated.
 1959 0000 29B1     		cbz	r1, .L182
 1960 0002 0388     		ldrh	r3, [r0]
 1961 0004 9BB2     		uxth	r3, r3
 1962 0006 43F00403 		orr	r3, r3, #4
 1963 000a 0380     		strh	r3, [r0]	@ movhi
 1964 000c 7047     		bx	lr
 1965              	.L182:
 1966 000e 0388     		ldrh	r3, [r0]
 1967 0010 9BB2     		uxth	r3, r3
 1968 0012 23F00403 		bic	r3, r3, #4
 1969 0016 9BB2     		uxth	r3, r3
 1970 0018 0380     		strh	r3, [r0]	@ movhi
 1971 001a 7047     		bx	lr
 1973              		.section	.text.TIM_SelectHallSensor,"ax",%progbits
 1974              		.align	1
 1975              		.global	TIM_SelectHallSensor
 1976              		.syntax unified
 1977              		.thumb
 1978              		.thumb_func
 1980              	TIM_SelectHallSensor:
 1981              		@ args = 0, pretend = 0, frame = 0
 1982              		@ frame_needed = 0, uses_anonymous_args = 0
 1983              		@ link register save eliminated.
 1984 0000 29B1     		cbz	r1, .L185
 1985 0002 8388     		ldrh	r3, [r0, #4]
 1986 0004 9BB2     		uxth	r3, r3
 1987 0006 43F08003 		orr	r3, r3, #128
 1988 000a 8380     		strh	r3, [r0, #4]	@ movhi
 1989 000c 7047     		bx	lr
 1990              	.L185:
 1991 000e 8388     		ldrh	r3, [r0, #4]
 1992 0010 9BB2     		uxth	r3, r3
 1993 0012 23F08003 		bic	r3, r3, #128
 1994 0016 9BB2     		uxth	r3, r3
 1995 0018 8380     		strh	r3, [r0, #4]	@ movhi
 1996 001a 7047     		bx	lr
 1998              		.section	.text.TIM_SelectOnePulseMode,"ax",%progbits
 1999              		.align	1
 2000              		.global	TIM_SelectOnePulseMode
 2001              		.syntax unified
 2002              		.thumb
 2003              		.thumb_func
 2005              	TIM_SelectOnePulseMode:
 2006              		@ args = 0, pretend = 0, frame = 0
 2007              		@ frame_needed = 0, uses_anonymous_args = 0
 2008              		@ link register save eliminated.
 2009 0000 0388     		ldrh	r3, [r0]
 2010 0002 9BB2     		uxth	r3, r3
ARM GAS  C:\Users\wxpwx\AppData\Local\Temp\cciP7bJU.s 			page 34


 2011 0004 23F00803 		bic	r3, r3, #8
 2012 0008 9BB2     		uxth	r3, r3
 2013 000a 0380     		strh	r3, [r0]	@ movhi
 2014 000c 0388     		ldrh	r3, [r0]
 2015 000e 9BB2     		uxth	r3, r3
 2016 0010 0B43     		orrs	r3, r3, r1
 2017 0012 0380     		strh	r3, [r0]	@ movhi
 2018 0014 7047     		bx	lr
 2020              		.section	.text.TIM_SelectOutputTrigger,"ax",%progbits
 2021              		.align	1
 2022              		.global	TIM_SelectOutputTrigger
 2023              		.syntax unified
 2024              		.thumb
 2025              		.thumb_func
 2027              	TIM_SelectOutputTrigger:
 2028              		@ args = 0, pretend = 0, frame = 0
 2029              		@ frame_needed = 0, uses_anonymous_args = 0
 2030              		@ link register save eliminated.
 2031 0000 8388     		ldrh	r3, [r0, #4]
 2032 0002 9BB2     		uxth	r3, r3
 2033 0004 23F07003 		bic	r3, r3, #112
 2034 0008 9BB2     		uxth	r3, r3
 2035 000a 8380     		strh	r3, [r0, #4]	@ movhi
 2036 000c 8388     		ldrh	r3, [r0, #4]
 2037 000e 9BB2     		uxth	r3, r3
 2038 0010 0B43     		orrs	r3, r3, r1
 2039 0012 8380     		strh	r3, [r0, #4]	@ movhi
 2040 0014 7047     		bx	lr
 2042              		.section	.text.TIM_SelectSlaveMode,"ax",%progbits
 2043              		.align	1
 2044              		.global	TIM_SelectSlaveMode
 2045              		.syntax unified
 2046              		.thumb
 2047              		.thumb_func
 2049              	TIM_SelectSlaveMode:
 2050              		@ args = 0, pretend = 0, frame = 0
 2051              		@ frame_needed = 0, uses_anonymous_args = 0
 2052              		@ link register save eliminated.
 2053 0000 0389     		ldrh	r3, [r0, #8]
 2054 0002 9BB2     		uxth	r3, r3
 2055 0004 23F00703 		bic	r3, r3, #7
 2056 0008 9BB2     		uxth	r3, r3
 2057 000a 0381     		strh	r3, [r0, #8]	@ movhi
 2058 000c 0389     		ldrh	r3, [r0, #8]
 2059 000e 9BB2     		uxth	r3, r3
 2060 0010 0B43     		orrs	r3, r3, r1
 2061 0012 0381     		strh	r3, [r0, #8]	@ movhi
 2062 0014 7047     		bx	lr
 2064              		.section	.text.TIM_SelectMasterSlaveMode,"ax",%progbits
 2065              		.align	1
 2066              		.global	TIM_SelectMasterSlaveMode
 2067              		.syntax unified
 2068              		.thumb
 2069              		.thumb_func
 2071              	TIM_SelectMasterSlaveMode:
 2072              		@ args = 0, pretend = 0, frame = 0
 2073              		@ frame_needed = 0, uses_anonymous_args = 0
ARM GAS  C:\Users\wxpwx\AppData\Local\Temp\cciP7bJU.s 			page 35


 2074              		@ link register save eliminated.
 2075 0000 0389     		ldrh	r3, [r0, #8]
 2076 0002 9BB2     		uxth	r3, r3
 2077 0004 23F08003 		bic	r3, r3, #128
 2078 0008 9BB2     		uxth	r3, r3
 2079 000a 0381     		strh	r3, [r0, #8]	@ movhi
 2080 000c 0389     		ldrh	r3, [r0, #8]
 2081 000e 9BB2     		uxth	r3, r3
 2082 0010 0B43     		orrs	r3, r3, r1
 2083 0012 0381     		strh	r3, [r0, #8]	@ movhi
 2084 0014 7047     		bx	lr
 2086              		.section	.text.TIM_SetCounter,"ax",%progbits
 2087              		.align	1
 2088              		.global	TIM_SetCounter
 2089              		.syntax unified
 2090              		.thumb
 2091              		.thumb_func
 2093              	TIM_SetCounter:
 2094              		@ args = 0, pretend = 0, frame = 0
 2095              		@ frame_needed = 0, uses_anonymous_args = 0
 2096              		@ link register save eliminated.
 2097 0000 8184     		strh	r1, [r0, #36]	@ movhi
 2098 0002 7047     		bx	lr
 2100              		.section	.text.TIM_SetAutoreload,"ax",%progbits
 2101              		.align	1
 2102              		.global	TIM_SetAutoreload
 2103              		.syntax unified
 2104              		.thumb
 2105              		.thumb_func
 2107              	TIM_SetAutoreload:
 2108              		@ args = 0, pretend = 0, frame = 0
 2109              		@ frame_needed = 0, uses_anonymous_args = 0
 2110              		@ link register save eliminated.
 2111 0000 8185     		strh	r1, [r0, #44]	@ movhi
 2112 0002 7047     		bx	lr
 2114              		.section	.text.TIM_SetCompare1,"ax",%progbits
 2115              		.align	1
 2116              		.global	TIM_SetCompare1
 2117              		.syntax unified
 2118              		.thumb
 2119              		.thumb_func
 2121              	TIM_SetCompare1:
 2122              		@ args = 0, pretend = 0, frame = 0
 2123              		@ frame_needed = 0, uses_anonymous_args = 0
 2124              		@ link register save eliminated.
 2125 0000 8186     		strh	r1, [r0, #52]	@ movhi
 2126 0002 7047     		bx	lr
 2128              		.section	.text.TIM_SetCompare2,"ax",%progbits
 2129              		.align	1
 2130              		.global	TIM_SetCompare2
 2131              		.syntax unified
 2132              		.thumb
 2133              		.thumb_func
 2135              	TIM_SetCompare2:
 2136              		@ args = 0, pretend = 0, frame = 0
 2137              		@ frame_needed = 0, uses_anonymous_args = 0
 2138              		@ link register save eliminated.
ARM GAS  C:\Users\wxpwx\AppData\Local\Temp\cciP7bJU.s 			page 36


 2139 0000 0187     		strh	r1, [r0, #56]	@ movhi
 2140 0002 7047     		bx	lr
 2142              		.section	.text.TIM_SetCompare3,"ax",%progbits
 2143              		.align	1
 2144              		.global	TIM_SetCompare3
 2145              		.syntax unified
 2146              		.thumb
 2147              		.thumb_func
 2149              	TIM_SetCompare3:
 2150              		@ args = 0, pretend = 0, frame = 0
 2151              		@ frame_needed = 0, uses_anonymous_args = 0
 2152              		@ link register save eliminated.
 2153 0000 8187     		strh	r1, [r0, #60]	@ movhi
 2154 0002 7047     		bx	lr
 2156              		.section	.text.TIM_SetCompare4,"ax",%progbits
 2157              		.align	1
 2158              		.global	TIM_SetCompare4
 2159              		.syntax unified
 2160              		.thumb
 2161              		.thumb_func
 2163              	TIM_SetCompare4:
 2164              		@ args = 0, pretend = 0, frame = 0
 2165              		@ frame_needed = 0, uses_anonymous_args = 0
 2166              		@ link register save eliminated.
 2167 0000 A0F84010 		strh	r1, [r0, #64]	@ movhi
 2168 0004 7047     		bx	lr
 2170              		.section	.text.TIM_SetIC1Prescaler,"ax",%progbits
 2171              		.align	1
 2172              		.global	TIM_SetIC1Prescaler
 2173              		.syntax unified
 2174              		.thumb
 2175              		.thumb_func
 2177              	TIM_SetIC1Prescaler:
 2178              		@ args = 0, pretend = 0, frame = 0
 2179              		@ frame_needed = 0, uses_anonymous_args = 0
 2180              		@ link register save eliminated.
 2181 0000 038B     		ldrh	r3, [r0, #24]
 2182 0002 9BB2     		uxth	r3, r3
 2183 0004 23F00C03 		bic	r3, r3, #12
 2184 0008 9BB2     		uxth	r3, r3
 2185 000a 0383     		strh	r3, [r0, #24]	@ movhi
 2186 000c 038B     		ldrh	r3, [r0, #24]
 2187 000e 9BB2     		uxth	r3, r3
 2188 0010 0B43     		orrs	r3, r3, r1
 2189 0012 0383     		strh	r3, [r0, #24]	@ movhi
 2190 0014 7047     		bx	lr
 2192              		.section	.text.TIM_SetIC2Prescaler,"ax",%progbits
 2193              		.align	1
 2194              		.global	TIM_SetIC2Prescaler
 2195              		.syntax unified
 2196              		.thumb
 2197              		.thumb_func
 2199              	TIM_SetIC2Prescaler:
 2200              		@ args = 0, pretend = 0, frame = 0
 2201              		@ frame_needed = 0, uses_anonymous_args = 0
 2202              		@ link register save eliminated.
 2203 0000 038B     		ldrh	r3, [r0, #24]
ARM GAS  C:\Users\wxpwx\AppData\Local\Temp\cciP7bJU.s 			page 37


 2204 0002 9BB2     		uxth	r3, r3
 2205 0004 23F44063 		bic	r3, r3, #3072
 2206 0008 9BB2     		uxth	r3, r3
 2207 000a 0383     		strh	r3, [r0, #24]	@ movhi
 2208 000c 038B     		ldrh	r3, [r0, #24]
 2209 000e 9BB2     		uxth	r3, r3
 2210 0010 0902     		lsls	r1, r1, #8
 2211 0012 89B2     		uxth	r1, r1
 2212 0014 0B43     		orrs	r3, r3, r1
 2213 0016 0383     		strh	r3, [r0, #24]	@ movhi
 2214 0018 7047     		bx	lr
 2216              		.section	.text.TIM_PWMIConfig,"ax",%progbits
 2217              		.align	1
 2218              		.global	TIM_PWMIConfig
 2219              		.syntax unified
 2220              		.thumb
 2221              		.thumb_func
 2223              	TIM_PWMIConfig:
 2224              		@ args = 0, pretend = 0, frame = 0
 2225              		@ frame_needed = 0, uses_anonymous_args = 0
 2226 0000 F8B5     		push	{r3, r4, r5, r6, r7, lr}
 2227 0002 0546     		mov	r5, r0
 2228 0004 0C46     		mov	r4, r1
 2229 0006 4988     		ldrh	r1, [r1, #2]
 2230 0008 C9B9     		cbnz	r1, .L204
 2231 000a 0226     		movs	r6, #2
 2232              	.L200:
 2233 000c A288     		ldrh	r2, [r4, #4]
 2234 000e 012A     		cmp	r2, #1
 2235 0010 17D0     		beq	.L207
 2236 0012 0127     		movs	r7, #1
 2237              	.L201:
 2238 0014 2388     		ldrh	r3, [r4]
 2239 0016 B3B9     		cbnz	r3, .L202
 2240 0018 2389     		ldrh	r3, [r4, #8]
 2241 001a 2846     		mov	r0, r5
 2242 001c FFF7FEFF 		bl	TI1_Config
 2243 0020 E188     		ldrh	r1, [r4, #6]
 2244 0022 2846     		mov	r0, r5
 2245 0024 FFF7FEFF 		bl	TIM_SetIC1Prescaler
 2246 0028 2389     		ldrh	r3, [r4, #8]
 2247 002a 3A46     		mov	r2, r7
 2248 002c 3146     		mov	r1, r6
 2249 002e 2846     		mov	r0, r5
 2250 0030 FFF7FEFF 		bl	TI2_Config
 2251 0034 E188     		ldrh	r1, [r4, #6]
 2252 0036 2846     		mov	r0, r5
 2253 0038 FFF7FEFF 		bl	TIM_SetIC2Prescaler
 2254              	.L199:
 2255 003c F8BD     		pop	{r3, r4, r5, r6, r7, pc}
 2256              	.L204:
 2257 003e 0026     		movs	r6, #0
 2258 0040 E4E7     		b	.L200
 2259              	.L207:
 2260 0042 0227     		movs	r7, #2
 2261 0044 E6E7     		b	.L201
 2262              	.L202:
ARM GAS  C:\Users\wxpwx\AppData\Local\Temp\cciP7bJU.s 			page 38


 2263 0046 2389     		ldrh	r3, [r4, #8]
 2264 0048 2846     		mov	r0, r5
 2265 004a FFF7FEFF 		bl	TI2_Config
 2266 004e E188     		ldrh	r1, [r4, #6]
 2267 0050 2846     		mov	r0, r5
 2268 0052 FFF7FEFF 		bl	TIM_SetIC2Prescaler
 2269 0056 2389     		ldrh	r3, [r4, #8]
 2270 0058 3A46     		mov	r2, r7
 2271 005a 3146     		mov	r1, r6
 2272 005c 2846     		mov	r0, r5
 2273 005e FFF7FEFF 		bl	TI1_Config
 2274 0062 E188     		ldrh	r1, [r4, #6]
 2275 0064 2846     		mov	r0, r5
 2276 0066 FFF7FEFF 		bl	TIM_SetIC1Prescaler
 2277 006a E7E7     		b	.L199
 2279              		.section	.text.TIM_SetIC3Prescaler,"ax",%progbits
 2280              		.align	1
 2281              		.global	TIM_SetIC3Prescaler
 2282              		.syntax unified
 2283              		.thumb
 2284              		.thumb_func
 2286              	TIM_SetIC3Prescaler:
 2287              		@ args = 0, pretend = 0, frame = 0
 2288              		@ frame_needed = 0, uses_anonymous_args = 0
 2289              		@ link register save eliminated.
 2290 0000 838B     		ldrh	r3, [r0, #28]
 2291 0002 9BB2     		uxth	r3, r3
 2292 0004 23F00C03 		bic	r3, r3, #12
 2293 0008 9BB2     		uxth	r3, r3
 2294 000a 8383     		strh	r3, [r0, #28]	@ movhi
 2295 000c 838B     		ldrh	r3, [r0, #28]
 2296 000e 9BB2     		uxth	r3, r3
 2297 0010 0B43     		orrs	r3, r3, r1
 2298 0012 8383     		strh	r3, [r0, #28]	@ movhi
 2299 0014 7047     		bx	lr
 2301              		.section	.text.TIM_SetIC4Prescaler,"ax",%progbits
 2302              		.align	1
 2303              		.global	TIM_SetIC4Prescaler
 2304              		.syntax unified
 2305              		.thumb
 2306              		.thumb_func
 2308              	TIM_SetIC4Prescaler:
 2309              		@ args = 0, pretend = 0, frame = 0
 2310              		@ frame_needed = 0, uses_anonymous_args = 0
 2311              		@ link register save eliminated.
 2312 0000 838B     		ldrh	r3, [r0, #28]
 2313 0002 9BB2     		uxth	r3, r3
 2314 0004 23F44063 		bic	r3, r3, #3072
 2315 0008 9BB2     		uxth	r3, r3
 2316 000a 8383     		strh	r3, [r0, #28]	@ movhi
 2317 000c 838B     		ldrh	r3, [r0, #28]
 2318 000e 9BB2     		uxth	r3, r3
 2319 0010 0902     		lsls	r1, r1, #8
 2320 0012 89B2     		uxth	r1, r1
 2321 0014 0B43     		orrs	r3, r3, r1
 2322 0016 8383     		strh	r3, [r0, #28]	@ movhi
 2323 0018 7047     		bx	lr
ARM GAS  C:\Users\wxpwx\AppData\Local\Temp\cciP7bJU.s 			page 39


 2325              		.section	.text.TIM_ICInit,"ax",%progbits
 2326              		.align	1
 2327              		.global	TIM_ICInit
 2328              		.syntax unified
 2329              		.thumb
 2330              		.thumb_func
 2332              	TIM_ICInit:
 2333              		@ args = 0, pretend = 0, frame = 0
 2334              		@ frame_needed = 0, uses_anonymous_args = 0
 2335 0000 38B5     		push	{r3, r4, r5, lr}
 2336 0002 0546     		mov	r5, r0
 2337 0004 0C46     		mov	r4, r1
 2338 0006 0B88     		ldrh	r3, [r1]
 2339 0008 6BB1     		cbz	r3, .L216
 2340 000a 042B     		cmp	r3, #4
 2341 000c 15D0     		beq	.L217
 2342 000e 082B     		cmp	r3, #8
 2343 0010 1DD0     		beq	.L218
 2344 0012 0B89     		ldrh	r3, [r1, #8]
 2345 0014 8A88     		ldrh	r2, [r1, #4]
 2346 0016 4988     		ldrh	r1, [r1, #2]
 2347 0018 FFF7FEFF 		bl	TI4_Config
 2348 001c E188     		ldrh	r1, [r4, #6]
 2349 001e 2846     		mov	r0, r5
 2350 0020 FFF7FEFF 		bl	TIM_SetIC4Prescaler
 2351              	.L210:
 2352 0024 38BD     		pop	{r3, r4, r5, pc}
 2353              	.L216:
 2354 0026 0B89     		ldrh	r3, [r1, #8]
 2355 0028 8A88     		ldrh	r2, [r1, #4]
 2356 002a 4988     		ldrh	r1, [r1, #2]
 2357 002c FFF7FEFF 		bl	TI1_Config
 2358 0030 E188     		ldrh	r1, [r4, #6]
 2359 0032 2846     		mov	r0, r5
 2360 0034 FFF7FEFF 		bl	TIM_SetIC1Prescaler
 2361 0038 F4E7     		b	.L210
 2362              	.L217:
 2363 003a 0B89     		ldrh	r3, [r1, #8]
 2364 003c 8A88     		ldrh	r2, [r1, #4]
 2365 003e 4988     		ldrh	r1, [r1, #2]
 2366 0040 FFF7FEFF 		bl	TI2_Config
 2367 0044 E188     		ldrh	r1, [r4, #6]
 2368 0046 2846     		mov	r0, r5
 2369 0048 FFF7FEFF 		bl	TIM_SetIC2Prescaler
 2370 004c EAE7     		b	.L210
 2371              	.L218:
 2372 004e 0B89     		ldrh	r3, [r1, #8]
 2373 0050 8A88     		ldrh	r2, [r1, #4]
 2374 0052 4988     		ldrh	r1, [r1, #2]
 2375 0054 FFF7FEFF 		bl	TI3_Config
 2376 0058 E188     		ldrh	r1, [r4, #6]
 2377 005a 2846     		mov	r0, r5
 2378 005c FFF7FEFF 		bl	TIM_SetIC3Prescaler
 2379 0060 E0E7     		b	.L210
 2381              		.section	.text.TIM_SetClockDivision,"ax",%progbits
 2382              		.align	1
 2383              		.global	TIM_SetClockDivision
ARM GAS  C:\Users\wxpwx\AppData\Local\Temp\cciP7bJU.s 			page 40


 2384              		.syntax unified
 2385              		.thumb
 2386              		.thumb_func
 2388              	TIM_SetClockDivision:
 2389              		@ args = 0, pretend = 0, frame = 0
 2390              		@ frame_needed = 0, uses_anonymous_args = 0
 2391              		@ link register save eliminated.
 2392 0000 0388     		ldrh	r3, [r0]
 2393 0002 9BB2     		uxth	r3, r3
 2394 0004 23F44073 		bic	r3, r3, #768
 2395 0008 9BB2     		uxth	r3, r3
 2396 000a 0380     		strh	r3, [r0]	@ movhi
 2397 000c 0388     		ldrh	r3, [r0]
 2398 000e 9BB2     		uxth	r3, r3
 2399 0010 0B43     		orrs	r3, r3, r1
 2400 0012 0380     		strh	r3, [r0]	@ movhi
 2401 0014 7047     		bx	lr
 2403              		.section	.text.TIM_GetCapture1,"ax",%progbits
 2404              		.align	1
 2405              		.global	TIM_GetCapture1
 2406              		.syntax unified
 2407              		.thumb
 2408              		.thumb_func
 2410              	TIM_GetCapture1:
 2411              		@ args = 0, pretend = 0, frame = 0
 2412              		@ frame_needed = 0, uses_anonymous_args = 0
 2413              		@ link register save eliminated.
 2414 0000 808E     		ldrh	r0, [r0, #52]
 2415 0002 80B2     		uxth	r0, r0
 2416 0004 7047     		bx	lr
 2418              		.section	.text.TIM_GetCapture2,"ax",%progbits
 2419              		.align	1
 2420              		.global	TIM_GetCapture2
 2421              		.syntax unified
 2422              		.thumb
 2423              		.thumb_func
 2425              	TIM_GetCapture2:
 2426              		@ args = 0, pretend = 0, frame = 0
 2427              		@ frame_needed = 0, uses_anonymous_args = 0
 2428              		@ link register save eliminated.
 2429 0000 008F     		ldrh	r0, [r0, #56]
 2430 0002 80B2     		uxth	r0, r0
 2431 0004 7047     		bx	lr
 2433              		.section	.text.TIM_GetCapture3,"ax",%progbits
 2434              		.align	1
 2435              		.global	TIM_GetCapture3
 2436              		.syntax unified
 2437              		.thumb
 2438              		.thumb_func
 2440              	TIM_GetCapture3:
 2441              		@ args = 0, pretend = 0, frame = 0
 2442              		@ frame_needed = 0, uses_anonymous_args = 0
 2443              		@ link register save eliminated.
 2444 0000 808F     		ldrh	r0, [r0, #60]
 2445 0002 80B2     		uxth	r0, r0
 2446 0004 7047     		bx	lr
 2448              		.section	.text.TIM_GetCapture4,"ax",%progbits
ARM GAS  C:\Users\wxpwx\AppData\Local\Temp\cciP7bJU.s 			page 41


 2449              		.align	1
 2450              		.global	TIM_GetCapture4
 2451              		.syntax unified
 2452              		.thumb
 2453              		.thumb_func
 2455              	TIM_GetCapture4:
 2456              		@ args = 0, pretend = 0, frame = 0
 2457              		@ frame_needed = 0, uses_anonymous_args = 0
 2458              		@ link register save eliminated.
 2459 0000 B0F84000 		ldrh	r0, [r0, #64]
 2460 0004 80B2     		uxth	r0, r0
 2461 0006 7047     		bx	lr
 2463              		.section	.text.TIM_GetCounter,"ax",%progbits
 2464              		.align	1
 2465              		.global	TIM_GetCounter
 2466              		.syntax unified
 2467              		.thumb
 2468              		.thumb_func
 2470              	TIM_GetCounter:
 2471              		@ args = 0, pretend = 0, frame = 0
 2472              		@ frame_needed = 0, uses_anonymous_args = 0
 2473              		@ link register save eliminated.
 2474 0000 808C     		ldrh	r0, [r0, #36]
 2475 0002 80B2     		uxth	r0, r0
 2476 0004 7047     		bx	lr
 2478              		.section	.text.TIM_GetPrescaler,"ax",%progbits
 2479              		.align	1
 2480              		.global	TIM_GetPrescaler
 2481              		.syntax unified
 2482              		.thumb
 2483              		.thumb_func
 2485              	TIM_GetPrescaler:
 2486              		@ args = 0, pretend = 0, frame = 0
 2487              		@ frame_needed = 0, uses_anonymous_args = 0
 2488              		@ link register save eliminated.
 2489 0000 008D     		ldrh	r0, [r0, #40]
 2490 0002 80B2     		uxth	r0, r0
 2491 0004 7047     		bx	lr
 2493              		.section	.text.TIM_GetFlagStatus,"ax",%progbits
 2494              		.align	1
 2495              		.global	TIM_GetFlagStatus
 2496              		.syntax unified
 2497              		.thumb
 2498              		.thumb_func
 2500              	TIM_GetFlagStatus:
 2501              		@ args = 0, pretend = 0, frame = 0
 2502              		@ frame_needed = 0, uses_anonymous_args = 0
 2503              		@ link register save eliminated.
 2504 0000 038A     		ldrh	r3, [r0, #16]
 2505 0002 1942     		tst	r1, r3
 2506 0004 01D0     		beq	.L228
 2507 0006 0120     		movs	r0, #1
 2508 0008 7047     		bx	lr
 2509              	.L228:
 2510 000a 0020     		movs	r0, #0
 2511 000c 7047     		bx	lr
 2513              		.section	.text.TIM_ClearFlag,"ax",%progbits
ARM GAS  C:\Users\wxpwx\AppData\Local\Temp\cciP7bJU.s 			page 42


 2514              		.align	1
 2515              		.global	TIM_ClearFlag
 2516              		.syntax unified
 2517              		.thumb
 2518              		.thumb_func
 2520              	TIM_ClearFlag:
 2521              		@ args = 0, pretend = 0, frame = 0
 2522              		@ frame_needed = 0, uses_anonymous_args = 0
 2523              		@ link register save eliminated.
 2524 0000 C943     		mvns	r1, r1
 2525 0002 89B2     		uxth	r1, r1
 2526 0004 0182     		strh	r1, [r0, #16]	@ movhi
 2527 0006 7047     		bx	lr
 2529              		.section	.text.TIM_GetITStatus,"ax",%progbits
 2530              		.align	1
 2531              		.global	TIM_GetITStatus
 2532              		.syntax unified
 2533              		.thumb
 2534              		.thumb_func
 2536              	TIM_GetITStatus:
 2537              		@ args = 0, pretend = 0, frame = 0
 2538              		@ frame_needed = 0, uses_anonymous_args = 0
 2539              		@ link register save eliminated.
 2540 0000 028A     		ldrh	r2, [r0, #16]
 2541 0002 8389     		ldrh	r3, [r0, #12]
 2542 0004 0B40     		ands	r3, r3, r1
 2543 0006 1142     		tst	r1, r2
 2544 0008 02D0     		beq	.L232
 2545 000a 1BB9     		cbnz	r3, .L233
 2546 000c 0020     		movs	r0, #0
 2547 000e 7047     		bx	lr
 2548              	.L232:
 2549 0010 0020     		movs	r0, #0
 2550 0012 7047     		bx	lr
 2551              	.L233:
 2552 0014 0120     		movs	r0, #1
 2553 0016 7047     		bx	lr
 2555              		.section	.text.TIM_ClearITPendingBit,"ax",%progbits
 2556              		.align	1
 2557              		.global	TIM_ClearITPendingBit
 2558              		.syntax unified
 2559              		.thumb
 2560              		.thumb_func
 2562              	TIM_ClearITPendingBit:
 2563              		@ args = 0, pretend = 0, frame = 0
 2564              		@ frame_needed = 0, uses_anonymous_args = 0
 2565              		@ link register save eliminated.
 2566 0000 C943     		mvns	r1, r1
 2567 0002 89B2     		uxth	r1, r1
 2568 0004 0182     		strh	r1, [r0, #16]	@ movhi
 2569 0006 7047     		bx	lr
 2571              		.ident	"GCC: (GNU Arm Embedded Toolchain 10.3-2021.10) 10.3.1 20210824 (release)"
ARM GAS  C:\Users\wxpwx\AppData\Local\Temp\cciP7bJU.s 			page 43

