ARM GAS  C:\Users\wxpwx\AppData\Local\Temp\ccZH73bd.s 			page 1


   1              		.cpu cortex-m3
   2              		.arch armv7-m
   3              		.fpu softvfp
   4              		.eabi_attribute 20, 1
   5              		.eabi_attribute 21, 1
   6              		.eabi_attribute 23, 3
   7              		.eabi_attribute 24, 1
   8              		.eabi_attribute 25, 1
   9              		.eabi_attribute 26, 1
  10              		.eabi_attribute 30, 1
  11              		.eabi_attribute 34, 1
  12              		.eabi_attribute 18, 4
  13              		.file	"stm32f10x_spi.c"
  14              		.text
  15              		.section	.text.SPI_I2S_DeInit,"ax",%progbits
  16              		.align	1
  17              		.global	SPI_I2S_DeInit
  18              		.syntax unified
  19              		.thumb
  20              		.thumb_func
  22              	SPI_I2S_DeInit:
  23              		@ args = 0, pretend = 0, frame = 0
  24              		@ frame_needed = 0, uses_anonymous_args = 0
  25 0000 08B5     		push	{r3, lr}
  26 0002 154B     		ldr	r3, .L9
  27 0004 9842     		cmp	r0, r3
  28 0006 06D0     		beq	.L6
  29 0008 144B     		ldr	r3, .L9+4
  30 000a 9842     		cmp	r0, r3
  31 000c 0ED0     		beq	.L7
  32 000e 144B     		ldr	r3, .L9+8
  33 0010 9842     		cmp	r0, r3
  34 0012 16D0     		beq	.L8
  35              	.L1:
  36 0014 08BD     		pop	{r3, pc}
  37              	.L6:
  38 0016 0121     		movs	r1, #1
  39 0018 4FF48050 		mov	r0, #4096
  40 001c FFF7FEFF 		bl	RCC_APB2PeriphResetCmd
  41 0020 0021     		movs	r1, #0
  42 0022 4FF48050 		mov	r0, #4096
  43 0026 FFF7FEFF 		bl	RCC_APB2PeriphResetCmd
  44 002a F3E7     		b	.L1
  45              	.L7:
  46 002c 0121     		movs	r1, #1
  47 002e 4FF48040 		mov	r0, #16384
  48 0032 FFF7FEFF 		bl	RCC_APB1PeriphResetCmd
  49 0036 0021     		movs	r1, #0
  50 0038 4FF48040 		mov	r0, #16384
  51 003c FFF7FEFF 		bl	RCC_APB1PeriphResetCmd
  52 0040 E8E7     		b	.L1
  53              	.L8:
  54 0042 0121     		movs	r1, #1
  55 0044 4FF40040 		mov	r0, #32768
  56 0048 FFF7FEFF 		bl	RCC_APB1PeriphResetCmd
  57 004c 0021     		movs	r1, #0
  58 004e 4FF40040 		mov	r0, #32768
ARM GAS  C:\Users\wxpwx\AppData\Local\Temp\ccZH73bd.s 			page 2


  59 0052 FFF7FEFF 		bl	RCC_APB1PeriphResetCmd
  60 0056 DDE7     		b	.L1
  61              	.L10:
  62              		.align	2
  63              	.L9:
  64 0058 00300140 		.word	1073819648
  65 005c 00380040 		.word	1073756160
  66 0060 003C0040 		.word	1073757184
  68              		.section	.text.SPI_Init,"ax",%progbits
  69              		.align	1
  70              		.global	SPI_Init
  71              		.syntax unified
  72              		.thumb
  73              		.thumb_func
  75              	SPI_Init:
  76              		@ args = 0, pretend = 0, frame = 0
  77              		@ frame_needed = 0, uses_anonymous_args = 0
  78 0000 2DE9F041 		push	{r4, r5, r6, r7, r8, lr}
  79 0004 0388     		ldrh	r3, [r0]
  80 0006 03F44152 		and	r2, r3, #12352
  81 000a 0F88     		ldrh	r7, [r1]
  82 000c B1F80280 		ldrh	r8, [r1, #2]
  83 0010 8E88     		ldrh	r6, [r1, #4]
  84 0012 CD88     		ldrh	r5, [r1, #6]
  85 0014 0C89     		ldrh	r4, [r1, #8]
  86 0016 B1F80AE0 		ldrh	lr, [r1, #10]
  87 001a B1F80CC0 		ldrh	ip, [r1, #12]
  88 001e CB89     		ldrh	r3, [r1, #14]
  89 0020 47EA0807 		orr	r7, r7, r8
  90 0024 3E43     		orrs	r6, r6, r7
  91 0026 3543     		orrs	r5, r5, r6
  92 0028 2C43     		orrs	r4, r4, r5
  93 002a 4EEA040E 		orr	lr, lr, r4
  94 002e 4CEA0E0C 		orr	ip, ip, lr
  95 0032 43EA0C03 		orr	r3, r3, ip
  96 0036 1343     		orrs	r3, r3, r2
  97 0038 0380     		strh	r3, [r0]	@ movhi
  98 003a 838B     		ldrh	r3, [r0, #28]
  99 003c 9BB2     		uxth	r3, r3
 100 003e 23F40063 		bic	r3, r3, #2048
 101 0042 9BB2     		uxth	r3, r3
 102 0044 8383     		strh	r3, [r0, #28]	@ movhi
 103 0046 0B8A     		ldrh	r3, [r1, #16]
 104 0048 0382     		strh	r3, [r0, #16]	@ movhi
 105 004a BDE8F081 		pop	{r4, r5, r6, r7, r8, pc}
 107              		.section	.text.I2S_Init,"ax",%progbits
 108              		.align	1
 109              		.global	I2S_Init
 110              		.syntax unified
 111              		.thumb
 112              		.thumb_func
 114              	I2S_Init:
 115              		@ args = 0, pretend = 0, frame = 24
 116              		@ frame_needed = 0, uses_anonymous_args = 0
 117 0000 F0B5     		push	{r4, r5, r6, r7, lr}
 118 0002 87B0     		sub	sp, sp, #28
 119 0004 0546     		mov	r5, r0
ARM GAS  C:\Users\wxpwx\AppData\Local\Temp\ccZH73bd.s 			page 3


 120 0006 0C46     		mov	r4, r1
 121 0008 838B     		ldrh	r3, [r0, #28]
 122 000a 9BB2     		uxth	r3, r3
 123 000c 23F47B63 		bic	r3, r3, #4016
 124 0010 23F00F03 		bic	r3, r3, #15
 125 0014 9BB2     		uxth	r3, r3
 126 0016 8383     		strh	r3, [r0, #28]	@ movhi
 127 0018 0223     		movs	r3, #2
 128 001a 0384     		strh	r3, [r0, #32]	@ movhi
 129 001c 868B     		ldrh	r6, [r0, #28]
 130 001e B6B2     		uxth	r6, r6
 131 0020 8B68     		ldr	r3, [r1, #8]
 132 0022 022B     		cmp	r3, #2
 133 0024 43D0     		beq	.L19
 134 0026 8B88     		ldrh	r3, [r1, #4]
 135 0028 002B     		cmp	r3, #0
 136 002a 34D1     		bne	.L20
 137 002c 0127     		movs	r7, #1
 138              	.L15:
 139 002e 01A8     		add	r0, sp, #4
 140 0030 FFF7FEFF 		bl	RCC_GetClocksFreq
 141 0034 019B     		ldr	r3, [sp, #4]
 142 0036 E288     		ldrh	r2, [r4, #6]
 143 0038 B2F5007F 		cmp	r2, #512
 144 003c 2DD0     		beq	.L23
 145 003e 7F01     		lsls	r7, r7, #5
 146 0040 B3FBF7F3 		udiv	r3, r3, r7
 147 0044 03EB8303 		add	r3, r3, r3, lsl #2
 148 0048 5B00     		lsls	r3, r3, #1
 149 004a A268     		ldr	r2, [r4, #8]
 150 004c B3FBF2F3 		udiv	r3, r3, r2
 151 0050 0533     		adds	r3, r3, #5
 152 0052 9BB2     		uxth	r3, r3
 153              	.L17:
 154 0054 174A     		ldr	r2, .L24
 155 0056 A2FB0323 		umull	r2, r3, r2, r3
 156 005a C3F3C002 		ubfx	r2, r3, #3, #1
 157 005e C2EBD303 		rsb	r3, r2, r3, lsr #3
 158 0062 C3F34F03 		ubfx	r3, r3, #1, #16
 159 0066 1102     		lsls	r1, r2, #8
 160              	.L14:
 161 0068 9A1E     		subs	r2, r3, #2
 162 006a 92B2     		uxth	r2, r2
 163 006c FD2A     		cmp	r2, #253
 164 006e 01D9     		bls	.L18
 165 0070 0021     		movs	r1, #0
 166 0072 0223     		movs	r3, #2
 167              	.L18:
 168 0074 E288     		ldrh	r2, [r4, #6]
 169 0076 0A43     		orrs	r2, r2, r1
 170 0078 1343     		orrs	r3, r3, r2
 171 007a 2B84     		strh	r3, [r5, #32]	@ movhi
 172 007c 2388     		ldrh	r3, [r4]
 173 007e 6288     		ldrh	r2, [r4, #2]
 174 0080 A188     		ldrh	r1, [r4, #4]
 175 0082 A089     		ldrh	r0, [r4, #12]
 176 0084 0143     		orrs	r1, r1, r0
ARM GAS  C:\Users\wxpwx\AppData\Local\Temp\ccZH73bd.s 			page 4


 177 0086 0A43     		orrs	r2, r2, r1
 178 0088 1343     		orrs	r3, r3, r2
 179 008a 1E43     		orrs	r6, r6, r3
 180 008c 46F40066 		orr	r6, r6, #2048
 181 0090 AE83     		strh	r6, [r5, #28]	@ movhi
 182 0092 07B0     		add	sp, sp, #28
 183              		@ sp needed
 184 0094 F0BD     		pop	{r4, r5, r6, r7, pc}
 185              	.L20:
 186 0096 0227     		movs	r7, #2
 187 0098 C9E7     		b	.L15
 188              	.L23:
 189 009a 1B0A     		lsrs	r3, r3, #8
 190 009c 03EB8303 		add	r3, r3, r3, lsl #2
 191 00a0 5B00     		lsls	r3, r3, #1
 192 00a2 A268     		ldr	r2, [r4, #8]
 193 00a4 B3FBF2F3 		udiv	r3, r3, r2
 194 00a8 0533     		adds	r3, r3, #5
 195 00aa 9BB2     		uxth	r3, r3
 196 00ac D2E7     		b	.L17
 197              	.L19:
 198 00ae 0021     		movs	r1, #0
 199 00b0 0223     		movs	r3, #2
 200 00b2 D9E7     		b	.L14
 201              	.L25:
 202              		.align	2
 203              	.L24:
 204 00b4 CDCCCCCC 		.word	-858993459
 206              		.section	.text.SPI_StructInit,"ax",%progbits
 207              		.align	1
 208              		.global	SPI_StructInit
 209              		.syntax unified
 210              		.thumb
 211              		.thumb_func
 213              	SPI_StructInit:
 214              		@ args = 0, pretend = 0, frame = 0
 215              		@ frame_needed = 0, uses_anonymous_args = 0
 216              		@ link register save eliminated.
 217 0000 0023     		movs	r3, #0
 218 0002 0380     		strh	r3, [r0]	@ movhi
 219 0004 4380     		strh	r3, [r0, #2]	@ movhi
 220 0006 8380     		strh	r3, [r0, #4]	@ movhi
 221 0008 C380     		strh	r3, [r0, #6]	@ movhi
 222 000a 0381     		strh	r3, [r0, #8]	@ movhi
 223 000c 4381     		strh	r3, [r0, #10]	@ movhi
 224 000e 8381     		strh	r3, [r0, #12]	@ movhi
 225 0010 C381     		strh	r3, [r0, #14]	@ movhi
 226 0012 0723     		movs	r3, #7
 227 0014 0382     		strh	r3, [r0, #16]	@ movhi
 228 0016 7047     		bx	lr
 230              		.section	.text.I2S_StructInit,"ax",%progbits
 231              		.align	1
 232              		.global	I2S_StructInit
 233              		.syntax unified
 234              		.thumb
 235              		.thumb_func
 237              	I2S_StructInit:
ARM GAS  C:\Users\wxpwx\AppData\Local\Temp\ccZH73bd.s 			page 5


 238              		@ args = 0, pretend = 0, frame = 0
 239              		@ frame_needed = 0, uses_anonymous_args = 0
 240              		@ link register save eliminated.
 241 0000 0023     		movs	r3, #0
 242 0002 0380     		strh	r3, [r0]	@ movhi
 243 0004 4380     		strh	r3, [r0, #2]	@ movhi
 244 0006 8380     		strh	r3, [r0, #4]	@ movhi
 245 0008 C380     		strh	r3, [r0, #6]	@ movhi
 246 000a 0222     		movs	r2, #2
 247 000c 8260     		str	r2, [r0, #8]
 248 000e 8381     		strh	r3, [r0, #12]	@ movhi
 249 0010 7047     		bx	lr
 251              		.section	.text.SPI_Cmd,"ax",%progbits
 252              		.align	1
 253              		.global	SPI_Cmd
 254              		.syntax unified
 255              		.thumb
 256              		.thumb_func
 258              	SPI_Cmd:
 259              		@ args = 0, pretend = 0, frame = 0
 260              		@ frame_needed = 0, uses_anonymous_args = 0
 261              		@ link register save eliminated.
 262 0000 29B1     		cbz	r1, .L29
 263 0002 0388     		ldrh	r3, [r0]
 264 0004 9BB2     		uxth	r3, r3
 265 0006 43F04003 		orr	r3, r3, #64
 266 000a 0380     		strh	r3, [r0]	@ movhi
 267 000c 7047     		bx	lr
 268              	.L29:
 269 000e 0388     		ldrh	r3, [r0]
 270 0010 9BB2     		uxth	r3, r3
 271 0012 23F04003 		bic	r3, r3, #64
 272 0016 9BB2     		uxth	r3, r3
 273 0018 0380     		strh	r3, [r0]	@ movhi
 274 001a 7047     		bx	lr
 276              		.section	.text.I2S_Cmd,"ax",%progbits
 277              		.align	1
 278              		.global	I2S_Cmd
 279              		.syntax unified
 280              		.thumb
 281              		.thumb_func
 283              	I2S_Cmd:
 284              		@ args = 0, pretend = 0, frame = 0
 285              		@ frame_needed = 0, uses_anonymous_args = 0
 286              		@ link register save eliminated.
 287 0000 29B1     		cbz	r1, .L32
 288 0002 838B     		ldrh	r3, [r0, #28]
 289 0004 9BB2     		uxth	r3, r3
 290 0006 43F48063 		orr	r3, r3, #1024
 291 000a 8383     		strh	r3, [r0, #28]	@ movhi
 292 000c 7047     		bx	lr
 293              	.L32:
 294 000e 838B     		ldrh	r3, [r0, #28]
 295 0010 9BB2     		uxth	r3, r3
 296 0012 23F48063 		bic	r3, r3, #1024
 297 0016 9BB2     		uxth	r3, r3
 298 0018 8383     		strh	r3, [r0, #28]	@ movhi
ARM GAS  C:\Users\wxpwx\AppData\Local\Temp\ccZH73bd.s 			page 6


 299 001a 7047     		bx	lr
 301              		.section	.text.SPI_I2S_ITConfig,"ax",%progbits
 302              		.align	1
 303              		.global	SPI_I2S_ITConfig
 304              		.syntax unified
 305              		.thumb
 306              		.thumb_func
 308              	SPI_I2S_ITConfig:
 309              		@ args = 0, pretend = 0, frame = 0
 310              		@ frame_needed = 0, uses_anonymous_args = 0
 311              		@ link register save eliminated.
 312 0000 0B09     		lsrs	r3, r1, #4
 313 0002 0121     		movs	r1, #1
 314 0004 9940     		lsls	r1, r1, r3
 315 0006 89B2     		uxth	r1, r1
 316 0008 22B1     		cbz	r2, .L35
 317 000a 8388     		ldrh	r3, [r0, #4]
 318 000c 9BB2     		uxth	r3, r3
 319 000e 1943     		orrs	r1, r1, r3
 320 0010 8180     		strh	r1, [r0, #4]	@ movhi
 321 0012 7047     		bx	lr
 322              	.L35:
 323 0014 8388     		ldrh	r3, [r0, #4]
 324 0016 C943     		mvns	r1, r1
 325 0018 89B2     		uxth	r1, r1
 326 001a 1940     		ands	r1, r1, r3
 327 001c 8180     		strh	r1, [r0, #4]	@ movhi
 328 001e 7047     		bx	lr
 330              		.section	.text.SPI_I2S_DMACmd,"ax",%progbits
 331              		.align	1
 332              		.global	SPI_I2S_DMACmd
 333              		.syntax unified
 334              		.thumb
 335              		.thumb_func
 337              	SPI_I2S_DMACmd:
 338              		@ args = 0, pretend = 0, frame = 0
 339              		@ frame_needed = 0, uses_anonymous_args = 0
 340              		@ link register save eliminated.
 341 0000 22B1     		cbz	r2, .L38
 342 0002 8388     		ldrh	r3, [r0, #4]
 343 0004 9BB2     		uxth	r3, r3
 344 0006 1943     		orrs	r1, r1, r3
 345 0008 8180     		strh	r1, [r0, #4]	@ movhi
 346 000a 7047     		bx	lr
 347              	.L38:
 348 000c 8388     		ldrh	r3, [r0, #4]
 349 000e C943     		mvns	r1, r1
 350 0010 89B2     		uxth	r1, r1
 351 0012 1940     		ands	r1, r1, r3
 352 0014 8180     		strh	r1, [r0, #4]	@ movhi
 353 0016 7047     		bx	lr
 355              		.section	.text.SPI_I2S_SendData,"ax",%progbits
 356              		.align	1
 357              		.global	SPI_I2S_SendData
 358              		.syntax unified
 359              		.thumb
 360              		.thumb_func
ARM GAS  C:\Users\wxpwx\AppData\Local\Temp\ccZH73bd.s 			page 7


 362              	SPI_I2S_SendData:
 363              		@ args = 0, pretend = 0, frame = 0
 364              		@ frame_needed = 0, uses_anonymous_args = 0
 365              		@ link register save eliminated.
 366 0000 8181     		strh	r1, [r0, #12]	@ movhi
 367 0002 7047     		bx	lr
 369              		.section	.text.SPI_I2S_ReceiveData,"ax",%progbits
 370              		.align	1
 371              		.global	SPI_I2S_ReceiveData
 372              		.syntax unified
 373              		.thumb
 374              		.thumb_func
 376              	SPI_I2S_ReceiveData:
 377              		@ args = 0, pretend = 0, frame = 0
 378              		@ frame_needed = 0, uses_anonymous_args = 0
 379              		@ link register save eliminated.
 380 0000 8089     		ldrh	r0, [r0, #12]
 381 0002 80B2     		uxth	r0, r0
 382 0004 7047     		bx	lr
 384              		.section	.text.SPI_NSSInternalSoftwareConfig,"ax",%progbits
 385              		.align	1
 386              		.global	SPI_NSSInternalSoftwareConfig
 387              		.syntax unified
 388              		.thumb
 389              		.thumb_func
 391              	SPI_NSSInternalSoftwareConfig:
 392              		@ args = 0, pretend = 0, frame = 0
 393              		@ frame_needed = 0, uses_anonymous_args = 0
 394              		@ link register save eliminated.
 395 0000 4FF6FF63 		movw	r3, #65279
 396 0004 9942     		cmp	r1, r3
 397 0006 05D0     		beq	.L43
 398 0008 0388     		ldrh	r3, [r0]
 399 000a 9BB2     		uxth	r3, r3
 400 000c 43F48073 		orr	r3, r3, #256
 401 0010 0380     		strh	r3, [r0]	@ movhi
 402 0012 7047     		bx	lr
 403              	.L43:
 404 0014 0388     		ldrh	r3, [r0]
 405 0016 9BB2     		uxth	r3, r3
 406 0018 23F48073 		bic	r3, r3, #256
 407 001c 9BB2     		uxth	r3, r3
 408 001e 0380     		strh	r3, [r0]	@ movhi
 409 0020 7047     		bx	lr
 411              		.section	.text.SPI_SSOutputCmd,"ax",%progbits
 412              		.align	1
 413              		.global	SPI_SSOutputCmd
 414              		.syntax unified
 415              		.thumb
 416              		.thumb_func
 418              	SPI_SSOutputCmd:
 419              		@ args = 0, pretend = 0, frame = 0
 420              		@ frame_needed = 0, uses_anonymous_args = 0
 421              		@ link register save eliminated.
 422 0000 29B1     		cbz	r1, .L46
 423 0002 8388     		ldrh	r3, [r0, #4]
 424 0004 9BB2     		uxth	r3, r3
ARM GAS  C:\Users\wxpwx\AppData\Local\Temp\ccZH73bd.s 			page 8


 425 0006 43F00403 		orr	r3, r3, #4
 426 000a 8380     		strh	r3, [r0, #4]	@ movhi
 427 000c 7047     		bx	lr
 428              	.L46:
 429 000e 8388     		ldrh	r3, [r0, #4]
 430 0010 9BB2     		uxth	r3, r3
 431 0012 23F00403 		bic	r3, r3, #4
 432 0016 9BB2     		uxth	r3, r3
 433 0018 8380     		strh	r3, [r0, #4]	@ movhi
 434 001a 7047     		bx	lr
 436              		.section	.text.SPI_DataSizeConfig,"ax",%progbits
 437              		.align	1
 438              		.global	SPI_DataSizeConfig
 439              		.syntax unified
 440              		.thumb
 441              		.thumb_func
 443              	SPI_DataSizeConfig:
 444              		@ args = 0, pretend = 0, frame = 0
 445              		@ frame_needed = 0, uses_anonymous_args = 0
 446              		@ link register save eliminated.
 447 0000 0388     		ldrh	r3, [r0]
 448 0002 9BB2     		uxth	r3, r3
 449 0004 23F40063 		bic	r3, r3, #2048
 450 0008 9BB2     		uxth	r3, r3
 451 000a 0380     		strh	r3, [r0]	@ movhi
 452 000c 0388     		ldrh	r3, [r0]
 453 000e 9BB2     		uxth	r3, r3
 454 0010 0B43     		orrs	r3, r3, r1
 455 0012 0380     		strh	r3, [r0]	@ movhi
 456 0014 7047     		bx	lr
 458              		.section	.text.SPI_TransmitCRC,"ax",%progbits
 459              		.align	1
 460              		.global	SPI_TransmitCRC
 461              		.syntax unified
 462              		.thumb
 463              		.thumb_func
 465              	SPI_TransmitCRC:
 466              		@ args = 0, pretend = 0, frame = 0
 467              		@ frame_needed = 0, uses_anonymous_args = 0
 468              		@ link register save eliminated.
 469 0000 0388     		ldrh	r3, [r0]
 470 0002 9BB2     		uxth	r3, r3
 471 0004 43F48053 		orr	r3, r3, #4096
 472 0008 0380     		strh	r3, [r0]	@ movhi
 473 000a 7047     		bx	lr
 475              		.section	.text.SPI_CalculateCRC,"ax",%progbits
 476              		.align	1
 477              		.global	SPI_CalculateCRC
 478              		.syntax unified
 479              		.thumb
 480              		.thumb_func
 482              	SPI_CalculateCRC:
 483              		@ args = 0, pretend = 0, frame = 0
 484              		@ frame_needed = 0, uses_anonymous_args = 0
 485              		@ link register save eliminated.
 486 0000 29B1     		cbz	r1, .L51
 487 0002 0388     		ldrh	r3, [r0]
ARM GAS  C:\Users\wxpwx\AppData\Local\Temp\ccZH73bd.s 			page 9


 488 0004 9BB2     		uxth	r3, r3
 489 0006 43F40053 		orr	r3, r3, #8192
 490 000a 0380     		strh	r3, [r0]	@ movhi
 491 000c 7047     		bx	lr
 492              	.L51:
 493 000e 0388     		ldrh	r3, [r0]
 494 0010 9BB2     		uxth	r3, r3
 495 0012 23F40053 		bic	r3, r3, #8192
 496 0016 9BB2     		uxth	r3, r3
 497 0018 0380     		strh	r3, [r0]	@ movhi
 498 001a 7047     		bx	lr
 500              		.section	.text.SPI_GetCRC,"ax",%progbits
 501              		.align	1
 502              		.global	SPI_GetCRC
 503              		.syntax unified
 504              		.thumb
 505              		.thumb_func
 507              	SPI_GetCRC:
 508              		@ args = 0, pretend = 0, frame = 0
 509              		@ frame_needed = 0, uses_anonymous_args = 0
 510              		@ link register save eliminated.
 511 0000 0129     		cmp	r1, #1
 512 0002 02D0     		beq	.L54
 513 0004 008B     		ldrh	r0, [r0, #24]
 514 0006 80B2     		uxth	r0, r0
 515 0008 7047     		bx	lr
 516              	.L54:
 517 000a 808A     		ldrh	r0, [r0, #20]
 518 000c 80B2     		uxth	r0, r0
 519 000e 7047     		bx	lr
 521              		.section	.text.SPI_GetCRCPolynomial,"ax",%progbits
 522              		.align	1
 523              		.global	SPI_GetCRCPolynomial
 524              		.syntax unified
 525              		.thumb
 526              		.thumb_func
 528              	SPI_GetCRCPolynomial:
 529              		@ args = 0, pretend = 0, frame = 0
 530              		@ frame_needed = 0, uses_anonymous_args = 0
 531              		@ link register save eliminated.
 532 0000 008A     		ldrh	r0, [r0, #16]
 533 0002 80B2     		uxth	r0, r0
 534 0004 7047     		bx	lr
 536              		.section	.text.SPI_BiDirectionalLineConfig,"ax",%progbits
 537              		.align	1
 538              		.global	SPI_BiDirectionalLineConfig
 539              		.syntax unified
 540              		.thumb
 541              		.thumb_func
 543              	SPI_BiDirectionalLineConfig:
 544              		@ args = 0, pretend = 0, frame = 0
 545              		@ frame_needed = 0, uses_anonymous_args = 0
 546              		@ link register save eliminated.
 547 0000 B1F5804F 		cmp	r1, #16384
 548 0004 06D0     		beq	.L60
 549 0006 0388     		ldrh	r3, [r0]
 550 0008 9BB2     		uxth	r3, r3
ARM GAS  C:\Users\wxpwx\AppData\Local\Temp\ccZH73bd.s 			page 10


 551 000a 23F48043 		bic	r3, r3, #16384
 552 000e 9BB2     		uxth	r3, r3
 553 0010 0380     		strh	r3, [r0]	@ movhi
 554 0012 7047     		bx	lr
 555              	.L60:
 556 0014 0388     		ldrh	r3, [r0]
 557 0016 9BB2     		uxth	r3, r3
 558 0018 43F48043 		orr	r3, r3, #16384
 559 001c 0380     		strh	r3, [r0]	@ movhi
 560 001e 7047     		bx	lr
 562              		.section	.text.SPI_I2S_GetFlagStatus,"ax",%progbits
 563              		.align	1
 564              		.global	SPI_I2S_GetFlagStatus
 565              		.syntax unified
 566              		.thumb
 567              		.thumb_func
 569              	SPI_I2S_GetFlagStatus:
 570              		@ args = 0, pretend = 0, frame = 0
 571              		@ frame_needed = 0, uses_anonymous_args = 0
 572              		@ link register save eliminated.
 573 0000 0389     		ldrh	r3, [r0, #8]
 574 0002 1942     		tst	r1, r3
 575 0004 01D0     		beq	.L63
 576 0006 0120     		movs	r0, #1
 577 0008 7047     		bx	lr
 578              	.L63:
 579 000a 0020     		movs	r0, #0
 580 000c 7047     		bx	lr
 582              		.section	.text.SPI_I2S_ClearFlag,"ax",%progbits
 583              		.align	1
 584              		.global	SPI_I2S_ClearFlag
 585              		.syntax unified
 586              		.thumb
 587              		.thumb_func
 589              	SPI_I2S_ClearFlag:
 590              		@ args = 0, pretend = 0, frame = 0
 591              		@ frame_needed = 0, uses_anonymous_args = 0
 592              		@ link register save eliminated.
 593 0000 C943     		mvns	r1, r1
 594 0002 89B2     		uxth	r1, r1
 595 0004 0181     		strh	r1, [r0, #8]	@ movhi
 596 0006 7047     		bx	lr
 598              		.section	.text.SPI_I2S_GetITStatus,"ax",%progbits
 599              		.align	1
 600              		.global	SPI_I2S_GetITStatus
 601              		.syntax unified
 602              		.thumb
 603              		.thumb_func
 605              	SPI_I2S_GetITStatus:
 606              		@ args = 0, pretend = 0, frame = 0
 607              		@ frame_needed = 0, uses_anonymous_args = 0
 608              		@ link register save eliminated.
 609 0000 01F00F02 		and	r2, r1, #15
 610 0004 0123     		movs	r3, #1
 611 0006 03FA02F2 		lsl	r2, r3, r2
 612 000a 0909     		lsrs	r1, r1, #4
 613 000c 03FA01F1 		lsl	r1, r3, r1
ARM GAS  C:\Users\wxpwx\AppData\Local\Temp\ccZH73bd.s 			page 11


 614 0010 8388     		ldrh	r3, [r0, #4]
 615 0012 9BB2     		uxth	r3, r3
 616 0014 1940     		ands	r1, r1, r3
 617 0016 0389     		ldrh	r3, [r0, #8]
 618 0018 9BB2     		uxth	r3, r3
 619 001a 1A42     		tst	r2, r3
 620 001c 02D0     		beq	.L67
 621 001e 19B9     		cbnz	r1, .L68
 622 0020 0020     		movs	r0, #0
 623 0022 7047     		bx	lr
 624              	.L67:
 625 0024 0020     		movs	r0, #0
 626 0026 7047     		bx	lr
 627              	.L68:
 628 0028 0120     		movs	r0, #1
 629 002a 7047     		bx	lr
 631              		.section	.text.SPI_I2S_ClearITPendingBit,"ax",%progbits
 632              		.align	1
 633              		.global	SPI_I2S_ClearITPendingBit
 634              		.syntax unified
 635              		.thumb
 636              		.thumb_func
 638              	SPI_I2S_ClearITPendingBit:
 639              		@ args = 0, pretend = 0, frame = 0
 640              		@ frame_needed = 0, uses_anonymous_args = 0
 641              		@ link register save eliminated.
 642 0000 01F00F01 		and	r1, r1, #15
 643 0004 0123     		movs	r3, #1
 644 0006 8B40     		lsls	r3, r3, r1
 645 0008 9BB2     		uxth	r3, r3
 646 000a DB43     		mvns	r3, r3
 647 000c 9BB2     		uxth	r3, r3
 648 000e 0381     		strh	r3, [r0, #8]	@ movhi
 649 0010 7047     		bx	lr
 651              		.ident	"GCC: (GNU Arm Embedded Toolchain 10.3-2021.10) 10.3.1 20210824 (release)"
ARM GAS  C:\Users\wxpwx\AppData\Local\Temp\ccZH73bd.s 			page 12

