ARM GAS  C:\Users\UXP\AppData\Local\Temp\ccLoKGpK.s 			page 1


   1              		.cpu cortex-m3
   2              		.arch armv7-m
   3              		.fpu softvfp
   4              		.eabi_attribute 20, 1
   5              		.eabi_attribute 21, 1
   6              		.eabi_attribute 23, 3
   7              		.eabi_attribute 24, 1
   8              		.eabi_attribute 25, 1
   9              		.eabi_attribute 26, 1
  10              		.eabi_attribute 30, 1
  11              		.eabi_attribute 34, 1
  12              		.eabi_attribute 18, 4
  13              		.file	"stm32f10x_rcc.c"
  14              		.text
  15              		.section	.text.RCC_DeInit,"ax",%progbits
  16              		.align	1
  17              		.global	RCC_DeInit
  18              		.syntax unified
  19              		.thumb
  20              		.thumb_func
  22              	RCC_DeInit:
  23              		@ args = 0, pretend = 0, frame = 0
  24              		@ frame_needed = 0, uses_anonymous_args = 0
  25              		@ link register save eliminated.
  26 0000 0D4B     		ldr	r3, .L2
  27 0002 1A68     		ldr	r2, [r3]
  28 0004 42F00102 		orr	r2, r2, #1
  29 0008 1A60     		str	r2, [r3]
  30 000a 5968     		ldr	r1, [r3, #4]
  31 000c 0B4A     		ldr	r2, .L2+4
  32 000e 0A40     		ands	r2, r2, r1
  33 0010 5A60     		str	r2, [r3, #4]
  34 0012 1A68     		ldr	r2, [r3]
  35 0014 22F08472 		bic	r2, r2, #17301504
  36 0018 22F48032 		bic	r2, r2, #65536
  37 001c 1A60     		str	r2, [r3]
  38 001e 1A68     		ldr	r2, [r3]
  39 0020 22F48022 		bic	r2, r2, #262144
  40 0024 1A60     		str	r2, [r3]
  41 0026 5A68     		ldr	r2, [r3, #4]
  42 0028 22F4FE02 		bic	r2, r2, #8323072
  43 002c 5A60     		str	r2, [r3, #4]
  44 002e 4FF41F02 		mov	r2, #10420224
  45 0032 9A60     		str	r2, [r3, #8]
  46 0034 7047     		bx	lr
  47              	.L3:
  48 0036 00BF     		.align	2
  49              	.L2:
  50 0038 00100240 		.word	1073876992
  51 003c 0000FFF8 		.word	-117506048
  53              		.section	.text.RCC_HSEConfig,"ax",%progbits
  54              		.align	1
  55              		.global	RCC_HSEConfig
  56              		.syntax unified
  57              		.thumb
  58              		.thumb_func
  60              	RCC_HSEConfig:
ARM GAS  C:\Users\UXP\AppData\Local\Temp\ccLoKGpK.s 			page 2


  61              		@ args = 0, pretend = 0, frame = 0
  62              		@ frame_needed = 0, uses_anonymous_args = 0
  63              		@ link register save eliminated.
  64 0000 0D4B     		ldr	r3, .L8
  65 0002 1A68     		ldr	r2, [r3]
  66 0004 22F48032 		bic	r2, r2, #65536
  67 0008 1A60     		str	r2, [r3]
  68 000a 1A68     		ldr	r2, [r3]
  69 000c 22F48022 		bic	r2, r2, #262144
  70 0010 1A60     		str	r2, [r3]
  71 0012 B0F5803F 		cmp	r0, #65536
  72 0016 03D0     		beq	.L5
  73 0018 B0F5802F 		cmp	r0, #262144
  74 001c 06D0     		beq	.L6
  75 001e 7047     		bx	lr
  76              	.L5:
  77 0020 054A     		ldr	r2, .L8
  78 0022 1368     		ldr	r3, [r2]
  79 0024 43F48033 		orr	r3, r3, #65536
  80 0028 1360     		str	r3, [r2]
  81 002a 7047     		bx	lr
  82              	.L6:
  83 002c 024A     		ldr	r2, .L8
  84 002e 1368     		ldr	r3, [r2]
  85 0030 43F4A023 		orr	r3, r3, #327680
  86 0034 1360     		str	r3, [r2]
  87 0036 7047     		bx	lr
  88              	.L9:
  89              		.align	2
  90              	.L8:
  91 0038 00100240 		.word	1073876992
  93              		.section	.text.RCC_AdjustHSICalibrationValue,"ax",%progbits
  94              		.align	1
  95              		.global	RCC_AdjustHSICalibrationValue
  96              		.syntax unified
  97              		.thumb
  98              		.thumb_func
 100              	RCC_AdjustHSICalibrationValue:
 101              		@ args = 0, pretend = 0, frame = 0
 102              		@ frame_needed = 0, uses_anonymous_args = 0
 103              		@ link register save eliminated.
 104 0000 034A     		ldr	r2, .L11
 105 0002 1368     		ldr	r3, [r2]
 106 0004 23F0F803 		bic	r3, r3, #248
 107 0008 43EAC003 		orr	r3, r3, r0, lsl #3
 108 000c 1360     		str	r3, [r2]
 109 000e 7047     		bx	lr
 110              	.L12:
 111              		.align	2
 112              	.L11:
 113 0010 00100240 		.word	1073876992
 115              		.section	.text.RCC_HSICmd,"ax",%progbits
 116              		.align	1
 117              		.global	RCC_HSICmd
 118              		.syntax unified
 119              		.thumb
 120              		.thumb_func
ARM GAS  C:\Users\UXP\AppData\Local\Temp\ccLoKGpK.s 			page 3


 122              	RCC_HSICmd:
 123              		@ args = 0, pretend = 0, frame = 0
 124              		@ frame_needed = 0, uses_anonymous_args = 0
 125              		@ link register save eliminated.
 126 0000 014B     		ldr	r3, .L14
 127 0002 1860     		str	r0, [r3]
 128 0004 7047     		bx	lr
 129              	.L15:
 130 0006 00BF     		.align	2
 131              	.L14:
 132 0008 00004242 		.word	1111621632
 134              		.section	.text.RCC_PLLConfig,"ax",%progbits
 135              		.align	1
 136              		.global	RCC_PLLConfig
 137              		.syntax unified
 138              		.thumb
 139              		.thumb_func
 141              	RCC_PLLConfig:
 142              		@ args = 0, pretend = 0, frame = 0
 143              		@ frame_needed = 0, uses_anonymous_args = 0
 144              		@ link register save eliminated.
 145 0000 034A     		ldr	r2, .L17
 146 0002 5368     		ldr	r3, [r2, #4]
 147 0004 23F47C13 		bic	r3, r3, #4128768
 148 0008 0843     		orrs	r0, r0, r1
 149 000a 1843     		orrs	r0, r0, r3
 150 000c 5060     		str	r0, [r2, #4]
 151 000e 7047     		bx	lr
 152              	.L18:
 153              		.align	2
 154              	.L17:
 155 0010 00100240 		.word	1073876992
 157              		.section	.text.RCC_PLLCmd,"ax",%progbits
 158              		.align	1
 159              		.global	RCC_PLLCmd
 160              		.syntax unified
 161              		.thumb
 162              		.thumb_func
 164              	RCC_PLLCmd:
 165              		@ args = 0, pretend = 0, frame = 0
 166              		@ frame_needed = 0, uses_anonymous_args = 0
 167              		@ link register save eliminated.
 168 0000 014B     		ldr	r3, .L20
 169 0002 1866     		str	r0, [r3, #96]
 170 0004 7047     		bx	lr
 171              	.L21:
 172 0006 00BF     		.align	2
 173              	.L20:
 174 0008 00004242 		.word	1111621632
 176              		.section	.text.RCC_SYSCLKConfig,"ax",%progbits
 177              		.align	1
 178              		.global	RCC_SYSCLKConfig
 179              		.syntax unified
 180              		.thumb
 181              		.thumb_func
 183              	RCC_SYSCLKConfig:
 184              		@ args = 0, pretend = 0, frame = 0
ARM GAS  C:\Users\UXP\AppData\Local\Temp\ccLoKGpK.s 			page 4


 185              		@ frame_needed = 0, uses_anonymous_args = 0
 186              		@ link register save eliminated.
 187 0000 034A     		ldr	r2, .L23
 188 0002 5368     		ldr	r3, [r2, #4]
 189 0004 23F00303 		bic	r3, r3, #3
 190 0008 0343     		orrs	r3, r3, r0
 191 000a 5360     		str	r3, [r2, #4]
 192 000c 7047     		bx	lr
 193              	.L24:
 194 000e 00BF     		.align	2
 195              	.L23:
 196 0010 00100240 		.word	1073876992
 198              		.section	.text.RCC_GetSYSCLKSource,"ax",%progbits
 199              		.align	1
 200              		.global	RCC_GetSYSCLKSource
 201              		.syntax unified
 202              		.thumb
 203              		.thumb_func
 205              	RCC_GetSYSCLKSource:
 206              		@ args = 0, pretend = 0, frame = 0
 207              		@ frame_needed = 0, uses_anonymous_args = 0
 208              		@ link register save eliminated.
 209 0000 024B     		ldr	r3, .L26
 210 0002 5868     		ldr	r0, [r3, #4]
 211 0004 00F00C00 		and	r0, r0, #12
 212 0008 7047     		bx	lr
 213              	.L27:
 214 000a 00BF     		.align	2
 215              	.L26:
 216 000c 00100240 		.word	1073876992
 218              		.section	.text.RCC_HCLKConfig,"ax",%progbits
 219              		.align	1
 220              		.global	RCC_HCLKConfig
 221              		.syntax unified
 222              		.thumb
 223              		.thumb_func
 225              	RCC_HCLKConfig:
 226              		@ args = 0, pretend = 0, frame = 0
 227              		@ frame_needed = 0, uses_anonymous_args = 0
 228              		@ link register save eliminated.
 229 0000 034A     		ldr	r2, .L29
 230 0002 5368     		ldr	r3, [r2, #4]
 231 0004 23F0F003 		bic	r3, r3, #240
 232 0008 0343     		orrs	r3, r3, r0
 233 000a 5360     		str	r3, [r2, #4]
 234 000c 7047     		bx	lr
 235              	.L30:
 236 000e 00BF     		.align	2
 237              	.L29:
 238 0010 00100240 		.word	1073876992
 240              		.section	.text.RCC_PCLK1Config,"ax",%progbits
 241              		.align	1
 242              		.global	RCC_PCLK1Config
 243              		.syntax unified
 244              		.thumb
 245              		.thumb_func
 247              	RCC_PCLK1Config:
ARM GAS  C:\Users\UXP\AppData\Local\Temp\ccLoKGpK.s 			page 5


 248              		@ args = 0, pretend = 0, frame = 0
 249              		@ frame_needed = 0, uses_anonymous_args = 0
 250              		@ link register save eliminated.
 251 0000 034A     		ldr	r2, .L32
 252 0002 5368     		ldr	r3, [r2, #4]
 253 0004 23F4E063 		bic	r3, r3, #1792
 254 0008 0343     		orrs	r3, r3, r0
 255 000a 5360     		str	r3, [r2, #4]
 256 000c 7047     		bx	lr
 257              	.L33:
 258 000e 00BF     		.align	2
 259              	.L32:
 260 0010 00100240 		.word	1073876992
 262              		.section	.text.RCC_PCLK2Config,"ax",%progbits
 263              		.align	1
 264              		.global	RCC_PCLK2Config
 265              		.syntax unified
 266              		.thumb
 267              		.thumb_func
 269              	RCC_PCLK2Config:
 270              		@ args = 0, pretend = 0, frame = 0
 271              		@ frame_needed = 0, uses_anonymous_args = 0
 272              		@ link register save eliminated.
 273 0000 034A     		ldr	r2, .L35
 274 0002 5368     		ldr	r3, [r2, #4]
 275 0004 23F46053 		bic	r3, r3, #14336
 276 0008 43EAC003 		orr	r3, r3, r0, lsl #3
 277 000c 5360     		str	r3, [r2, #4]
 278 000e 7047     		bx	lr
 279              	.L36:
 280              		.align	2
 281              	.L35:
 282 0010 00100240 		.word	1073876992
 284              		.section	.text.RCC_ITConfig,"ax",%progbits
 285              		.align	1
 286              		.global	RCC_ITConfig
 287              		.syntax unified
 288              		.thumb
 289              		.thumb_func
 291              	RCC_ITConfig:
 292              		@ args = 0, pretend = 0, frame = 0
 293              		@ frame_needed = 0, uses_anonymous_args = 0
 294              		@ link register save eliminated.
 295 0000 21B1     		cbz	r1, .L38
 296 0002 054A     		ldr	r2, .L40
 297 0004 537A     		ldrb	r3, [r2, #9]	@ zero_extendqisi2
 298 0006 0343     		orrs	r3, r3, r0
 299 0008 5372     		strb	r3, [r2, #9]
 300 000a 7047     		bx	lr
 301              	.L38:
 302 000c 024A     		ldr	r2, .L40
 303 000e 537A     		ldrb	r3, [r2, #9]	@ zero_extendqisi2
 304 0010 23EA0003 		bic	r3, r3, r0
 305 0014 5372     		strb	r3, [r2, #9]
 306 0016 7047     		bx	lr
 307              	.L41:
 308              		.align	2
ARM GAS  C:\Users\UXP\AppData\Local\Temp\ccLoKGpK.s 			page 6


 309              	.L40:
 310 0018 00100240 		.word	1073876992
 312              		.section	.text.RCC_USBCLKConfig,"ax",%progbits
 313              		.align	1
 314              		.global	RCC_USBCLKConfig
 315              		.syntax unified
 316              		.thumb
 317              		.thumb_func
 319              	RCC_USBCLKConfig:
 320              		@ args = 0, pretend = 0, frame = 0
 321              		@ frame_needed = 0, uses_anonymous_args = 0
 322              		@ link register save eliminated.
 323 0000 014B     		ldr	r3, .L43
 324 0002 C3F8D800 		str	r0, [r3, #216]
 325 0006 7047     		bx	lr
 326              	.L44:
 327              		.align	2
 328              	.L43:
 329 0008 00004242 		.word	1111621632
 331              		.section	.text.RCC_ADCCLKConfig,"ax",%progbits
 332              		.align	1
 333              		.global	RCC_ADCCLKConfig
 334              		.syntax unified
 335              		.thumb
 336              		.thumb_func
 338              	RCC_ADCCLKConfig:
 339              		@ args = 0, pretend = 0, frame = 0
 340              		@ frame_needed = 0, uses_anonymous_args = 0
 341              		@ link register save eliminated.
 342 0000 034A     		ldr	r2, .L46
 343 0002 5368     		ldr	r3, [r2, #4]
 344 0004 23F44043 		bic	r3, r3, #49152
 345 0008 0343     		orrs	r3, r3, r0
 346 000a 5360     		str	r3, [r2, #4]
 347 000c 7047     		bx	lr
 348              	.L47:
 349 000e 00BF     		.align	2
 350              	.L46:
 351 0010 00100240 		.word	1073876992
 353              		.section	.text.RCC_LSEConfig,"ax",%progbits
 354              		.align	1
 355              		.global	RCC_LSEConfig
 356              		.syntax unified
 357              		.thumb
 358              		.thumb_func
 360              	RCC_LSEConfig:
 361              		@ args = 0, pretend = 0, frame = 0
 362              		@ frame_needed = 0, uses_anonymous_args = 0
 363              		@ link register save eliminated.
 364 0000 0A4B     		ldr	r3, .L52
 365 0002 0022     		movs	r2, #0
 366 0004 83F82020 		strb	r2, [r3, #32]
 367 0008 83F82020 		strb	r2, [r3, #32]
 368 000c 0128     		cmp	r0, #1
 369 000e 02D0     		beq	.L49
 370 0010 0428     		cmp	r0, #4
 371 0012 05D0     		beq	.L50
ARM GAS  C:\Users\UXP\AppData\Local\Temp\ccLoKGpK.s 			page 7


 372 0014 7047     		bx	lr
 373              	.L49:
 374 0016 054B     		ldr	r3, .L52
 375 0018 0122     		movs	r2, #1
 376 001a 83F82020 		strb	r2, [r3, #32]
 377 001e 7047     		bx	lr
 378              	.L50:
 379 0020 024B     		ldr	r3, .L52
 380 0022 0522     		movs	r2, #5
 381 0024 83F82020 		strb	r2, [r3, #32]
 382 0028 7047     		bx	lr
 383              	.L53:
 384 002a 00BF     		.align	2
 385              	.L52:
 386 002c 00100240 		.word	1073876992
 388              		.section	.text.RCC_LSICmd,"ax",%progbits
 389              		.align	1
 390              		.global	RCC_LSICmd
 391              		.syntax unified
 392              		.thumb
 393              		.thumb_func
 395              	RCC_LSICmd:
 396              		@ args = 0, pretend = 0, frame = 0
 397              		@ frame_needed = 0, uses_anonymous_args = 0
 398              		@ link register save eliminated.
 399 0000 014B     		ldr	r3, .L55
 400 0002 C3F88004 		str	r0, [r3, #1152]
 401 0006 7047     		bx	lr
 402              	.L56:
 403              		.align	2
 404              	.L55:
 405 0008 00004242 		.word	1111621632
 407              		.section	.text.RCC_RTCCLKConfig,"ax",%progbits
 408              		.align	1
 409              		.global	RCC_RTCCLKConfig
 410              		.syntax unified
 411              		.thumb
 412              		.thumb_func
 414              	RCC_RTCCLKConfig:
 415              		@ args = 0, pretend = 0, frame = 0
 416              		@ frame_needed = 0, uses_anonymous_args = 0
 417              		@ link register save eliminated.
 418 0000 024A     		ldr	r2, .L58
 419 0002 136A     		ldr	r3, [r2, #32]
 420 0004 0343     		orrs	r3, r3, r0
 421 0006 1362     		str	r3, [r2, #32]
 422 0008 7047     		bx	lr
 423              	.L59:
 424 000a 00BF     		.align	2
 425              	.L58:
 426 000c 00100240 		.word	1073876992
 428              		.section	.text.RCC_RTCCLKCmd,"ax",%progbits
 429              		.align	1
 430              		.global	RCC_RTCCLKCmd
 431              		.syntax unified
 432              		.thumb
 433              		.thumb_func
ARM GAS  C:\Users\UXP\AppData\Local\Temp\ccLoKGpK.s 			page 8


 435              	RCC_RTCCLKCmd:
 436              		@ args = 0, pretend = 0, frame = 0
 437              		@ frame_needed = 0, uses_anonymous_args = 0
 438              		@ link register save eliminated.
 439 0000 014B     		ldr	r3, .L61
 440 0002 C3F83C04 		str	r0, [r3, #1084]
 441 0006 7047     		bx	lr
 442              	.L62:
 443              		.align	2
 444              	.L61:
 445 0008 00004242 		.word	1111621632
 447              		.section	.text.RCC_GetClocksFreq,"ax",%progbits
 448              		.align	1
 449              		.global	RCC_GetClocksFreq
 450              		.syntax unified
 451              		.thumb
 452              		.thumb_func
 454              	RCC_GetClocksFreq:
 455              		@ args = 0, pretend = 0, frame = 0
 456              		@ frame_needed = 0, uses_anonymous_args = 0
 457              		@ link register save eliminated.
 458 0000 10B4     		push	{r4}
 459 0002 274B     		ldr	r3, .L71
 460 0004 5B68     		ldr	r3, [r3, #4]
 461 0006 03F00C03 		and	r3, r3, #12
 462 000a 042B     		cmp	r3, #4
 463 000c 25D0     		beq	.L64
 464 000e 082B     		cmp	r3, #8
 465 0010 26D0     		beq	.L65
 466 0012 002B     		cmp	r3, #0
 467 0014 41D1     		bne	.L66
 468 0016 234B     		ldr	r3, .L71+4
 469 0018 0360     		str	r3, [r0]
 470              	.L67:
 471 001a 214A     		ldr	r2, .L71
 472 001c 5368     		ldr	r3, [r2, #4]
 473 001e C3F30313 		ubfx	r3, r3, #4, #4
 474 0022 214C     		ldr	r4, .L71+8
 475 0024 E15C     		ldrb	r1, [r4, r3]	@ zero_extendqisi2
 476 0026 0368     		ldr	r3, [r0]
 477 0028 CB40     		lsrs	r3, r3, r1
 478 002a 4360     		str	r3, [r0, #4]
 479 002c 5168     		ldr	r1, [r2, #4]
 480 002e C1F30221 		ubfx	r1, r1, #8, #3
 481 0032 615C     		ldrb	r1, [r4, r1]	@ zero_extendqisi2
 482 0034 23FA01F1 		lsr	r1, r3, r1
 483 0038 8160     		str	r1, [r0, #8]
 484 003a 5168     		ldr	r1, [r2, #4]
 485 003c C1F3C221 		ubfx	r1, r1, #11, #3
 486 0040 615C     		ldrb	r1, [r4, r1]	@ zero_extendqisi2
 487 0042 CB40     		lsrs	r3, r3, r1
 488 0044 C360     		str	r3, [r0, #12]
 489 0046 5268     		ldr	r2, [r2, #4]
 490 0048 C2F38132 		ubfx	r2, r2, #14, #2
 491 004c 1749     		ldr	r1, .L71+12
 492 004e 8A5C     		ldrb	r2, [r1, r2]	@ zero_extendqisi2
 493 0050 B3FBF2F3 		udiv	r3, r3, r2
ARM GAS  C:\Users\UXP\AppData\Local\Temp\ccLoKGpK.s 			page 9


 494 0054 0361     		str	r3, [r0, #16]
 495 0056 10BC     		pop	{r4}
 496 0058 7047     		bx	lr
 497              	.L64:
 498 005a 124B     		ldr	r3, .L71+4
 499 005c 0360     		str	r3, [r0]
 500 005e DCE7     		b	.L67
 501              	.L65:
 502 0060 0F4A     		ldr	r2, .L71
 503 0062 5368     		ldr	r3, [r2, #4]
 504 0064 5268     		ldr	r2, [r2, #4]
 505 0066 C3F38343 		ubfx	r3, r3, #18, #4
 506 006a 0233     		adds	r3, r3, #2
 507 006c 12F4803F 		tst	r2, #65536
 508 0070 04D1     		bne	.L68
 509 0072 0F4A     		ldr	r2, .L71+16
 510 0074 02FB03F3 		mul	r3, r2, r3
 511 0078 0360     		str	r3, [r0]
 512 007a CEE7     		b	.L67
 513              	.L68:
 514 007c 084A     		ldr	r2, .L71
 515 007e 5268     		ldr	r2, [r2, #4]
 516 0080 12F4003F 		tst	r2, #131072
 517 0084 04D0     		beq	.L69
 518 0086 0A4A     		ldr	r2, .L71+16
 519 0088 02FB03F3 		mul	r3, r2, r3
 520 008c 0360     		str	r3, [r0]
 521 008e C4E7     		b	.L67
 522              	.L69:
 523 0090 044A     		ldr	r2, .L71+4
 524 0092 02FB03F3 		mul	r3, r2, r3
 525 0096 0360     		str	r3, [r0]
 526 0098 BFE7     		b	.L67
 527              	.L66:
 528 009a 024B     		ldr	r3, .L71+4
 529 009c 0360     		str	r3, [r0]
 530 009e BCE7     		b	.L67
 531              	.L72:
 532              		.align	2
 533              	.L71:
 534 00a0 00100240 		.word	1073876992
 535 00a4 00127A00 		.word	8000000
 536 00a8 00000000 		.word	APBAHBPrescTable
 537 00ac 00000000 		.word	ADCPrescTable
 538 00b0 00093D00 		.word	4000000
 540              		.section	.text.RCC_AHBPeriphClockCmd,"ax",%progbits
 541              		.align	1
 542              		.global	RCC_AHBPeriphClockCmd
 543              		.syntax unified
 544              		.thumb
 545              		.thumb_func
 547              	RCC_AHBPeriphClockCmd:
 548              		@ args = 0, pretend = 0, frame = 0
 549              		@ frame_needed = 0, uses_anonymous_args = 0
 550              		@ link register save eliminated.
 551 0000 21B1     		cbz	r1, .L74
 552 0002 054A     		ldr	r2, .L76
ARM GAS  C:\Users\UXP\AppData\Local\Temp\ccLoKGpK.s 			page 10


 553 0004 5369     		ldr	r3, [r2, #20]
 554 0006 0343     		orrs	r3, r3, r0
 555 0008 5361     		str	r3, [r2, #20]
 556 000a 7047     		bx	lr
 557              	.L74:
 558 000c 024A     		ldr	r2, .L76
 559 000e 5369     		ldr	r3, [r2, #20]
 560 0010 23EA0003 		bic	r3, r3, r0
 561 0014 5361     		str	r3, [r2, #20]
 562 0016 7047     		bx	lr
 563              	.L77:
 564              		.align	2
 565              	.L76:
 566 0018 00100240 		.word	1073876992
 568              		.section	.text.RCC_APB2PeriphClockCmd,"ax",%progbits
 569              		.align	1
 570              		.global	RCC_APB2PeriphClockCmd
 571              		.syntax unified
 572              		.thumb
 573              		.thumb_func
 575              	RCC_APB2PeriphClockCmd:
 576              		@ args = 0, pretend = 0, frame = 0
 577              		@ frame_needed = 0, uses_anonymous_args = 0
 578              		@ link register save eliminated.
 579 0000 21B1     		cbz	r1, .L79
 580 0002 054A     		ldr	r2, .L81
 581 0004 9369     		ldr	r3, [r2, #24]
 582 0006 0343     		orrs	r3, r3, r0
 583 0008 9361     		str	r3, [r2, #24]
 584 000a 7047     		bx	lr
 585              	.L79:
 586 000c 024A     		ldr	r2, .L81
 587 000e 9369     		ldr	r3, [r2, #24]
 588 0010 23EA0003 		bic	r3, r3, r0
 589 0014 9361     		str	r3, [r2, #24]
 590 0016 7047     		bx	lr
 591              	.L82:
 592              		.align	2
 593              	.L81:
 594 0018 00100240 		.word	1073876992
 596              		.section	.text.RCC_APB1PeriphClockCmd,"ax",%progbits
 597              		.align	1
 598              		.global	RCC_APB1PeriphClockCmd
 599              		.syntax unified
 600              		.thumb
 601              		.thumb_func
 603              	RCC_APB1PeriphClockCmd:
 604              		@ args = 0, pretend = 0, frame = 0
 605              		@ frame_needed = 0, uses_anonymous_args = 0
 606              		@ link register save eliminated.
 607 0000 21B1     		cbz	r1, .L84
 608 0002 054A     		ldr	r2, .L86
 609 0004 D369     		ldr	r3, [r2, #28]
 610 0006 0343     		orrs	r3, r3, r0
 611 0008 D361     		str	r3, [r2, #28]
 612 000a 7047     		bx	lr
 613              	.L84:
ARM GAS  C:\Users\UXP\AppData\Local\Temp\ccLoKGpK.s 			page 11


 614 000c 024A     		ldr	r2, .L86
 615 000e D369     		ldr	r3, [r2, #28]
 616 0010 23EA0003 		bic	r3, r3, r0
 617 0014 D361     		str	r3, [r2, #28]
 618 0016 7047     		bx	lr
 619              	.L87:
 620              		.align	2
 621              	.L86:
 622 0018 00100240 		.word	1073876992
 624              		.section	.text.RCC_APB2PeriphResetCmd,"ax",%progbits
 625              		.align	1
 626              		.global	RCC_APB2PeriphResetCmd
 627              		.syntax unified
 628              		.thumb
 629              		.thumb_func
 631              	RCC_APB2PeriphResetCmd:
 632              		@ args = 0, pretend = 0, frame = 0
 633              		@ frame_needed = 0, uses_anonymous_args = 0
 634              		@ link register save eliminated.
 635 0000 21B1     		cbz	r1, .L89
 636 0002 054A     		ldr	r2, .L91
 637 0004 D368     		ldr	r3, [r2, #12]
 638 0006 0343     		orrs	r3, r3, r0
 639 0008 D360     		str	r3, [r2, #12]
 640 000a 7047     		bx	lr
 641              	.L89:
 642 000c 024A     		ldr	r2, .L91
 643 000e D368     		ldr	r3, [r2, #12]
 644 0010 23EA0003 		bic	r3, r3, r0
 645 0014 D360     		str	r3, [r2, #12]
 646 0016 7047     		bx	lr
 647              	.L92:
 648              		.align	2
 649              	.L91:
 650 0018 00100240 		.word	1073876992
 652              		.section	.text.RCC_APB1PeriphResetCmd,"ax",%progbits
 653              		.align	1
 654              		.global	RCC_APB1PeriphResetCmd
 655              		.syntax unified
 656              		.thumb
 657              		.thumb_func
 659              	RCC_APB1PeriphResetCmd:
 660              		@ args = 0, pretend = 0, frame = 0
 661              		@ frame_needed = 0, uses_anonymous_args = 0
 662              		@ link register save eliminated.
 663 0000 21B1     		cbz	r1, .L94
 664 0002 054A     		ldr	r2, .L96
 665 0004 1369     		ldr	r3, [r2, #16]
 666 0006 0343     		orrs	r3, r3, r0
 667 0008 1361     		str	r3, [r2, #16]
 668 000a 7047     		bx	lr
 669              	.L94:
 670 000c 024A     		ldr	r2, .L96
 671 000e 1369     		ldr	r3, [r2, #16]
 672 0010 23EA0003 		bic	r3, r3, r0
 673 0014 1361     		str	r3, [r2, #16]
 674 0016 7047     		bx	lr
ARM GAS  C:\Users\UXP\AppData\Local\Temp\ccLoKGpK.s 			page 12


 675              	.L97:
 676              		.align	2
 677              	.L96:
 678 0018 00100240 		.word	1073876992
 680              		.section	.text.RCC_BackupResetCmd,"ax",%progbits
 681              		.align	1
 682              		.global	RCC_BackupResetCmd
 683              		.syntax unified
 684              		.thumb
 685              		.thumb_func
 687              	RCC_BackupResetCmd:
 688              		@ args = 0, pretend = 0, frame = 0
 689              		@ frame_needed = 0, uses_anonymous_args = 0
 690              		@ link register save eliminated.
 691 0000 014B     		ldr	r3, .L99
 692 0002 C3F84004 		str	r0, [r3, #1088]
 693 0006 7047     		bx	lr
 694              	.L100:
 695              		.align	2
 696              	.L99:
 697 0008 00004242 		.word	1111621632
 699              		.section	.text.RCC_ClockSecuritySystemCmd,"ax",%progbits
 700              		.align	1
 701              		.global	RCC_ClockSecuritySystemCmd
 702              		.syntax unified
 703              		.thumb
 704              		.thumb_func
 706              	RCC_ClockSecuritySystemCmd:
 707              		@ args = 0, pretend = 0, frame = 0
 708              		@ frame_needed = 0, uses_anonymous_args = 0
 709              		@ link register save eliminated.
 710 0000 014B     		ldr	r3, .L102
 711 0002 D864     		str	r0, [r3, #76]
 712 0004 7047     		bx	lr
 713              	.L103:
 714 0006 00BF     		.align	2
 715              	.L102:
 716 0008 00004242 		.word	1111621632
 718              		.section	.text.RCC_MCOConfig,"ax",%progbits
 719              		.align	1
 720              		.global	RCC_MCOConfig
 721              		.syntax unified
 722              		.thumb
 723              		.thumb_func
 725              	RCC_MCOConfig:
 726              		@ args = 0, pretend = 0, frame = 0
 727              		@ frame_needed = 0, uses_anonymous_args = 0
 728              		@ link register save eliminated.
 729 0000 014B     		ldr	r3, .L105
 730 0002 D871     		strb	r0, [r3, #7]
 731 0004 7047     		bx	lr
 732              	.L106:
 733 0006 00BF     		.align	2
 734              	.L105:
 735 0008 00100240 		.word	1073876992
 737              		.section	.text.RCC_GetFlagStatus,"ax",%progbits
 738              		.align	1
ARM GAS  C:\Users\UXP\AppData\Local\Temp\ccLoKGpK.s 			page 13


 739              		.global	RCC_GetFlagStatus
 740              		.syntax unified
 741              		.thumb
 742              		.thumb_func
 744              	RCC_GetFlagStatus:
 745              		@ args = 0, pretend = 0, frame = 0
 746              		@ frame_needed = 0, uses_anonymous_args = 0
 747              		@ link register save eliminated.
 748 0000 4309     		lsrs	r3, r0, #5
 749 0002 012B     		cmp	r3, #1
 750 0004 0BD0     		beq	.L113
 751 0006 022B     		cmp	r3, #2
 752 0008 0CD0     		beq	.L114
 753 000a 094B     		ldr	r3, .L115
 754 000c 5B6A     		ldr	r3, [r3, #36]
 755              	.L109:
 756 000e 00F01F00 		and	r0, r0, #31
 757 0012 C340     		lsrs	r3, r3, r0
 758 0014 13F0010F 		tst	r3, #1
 759 0018 07D0     		beq	.L112
 760 001a 0120     		movs	r0, #1
 761 001c 7047     		bx	lr
 762              	.L113:
 763 001e 044B     		ldr	r3, .L115
 764 0020 1B68     		ldr	r3, [r3]
 765 0022 F4E7     		b	.L109
 766              	.L114:
 767 0024 024B     		ldr	r3, .L115
 768 0026 1B6A     		ldr	r3, [r3, #32]
 769 0028 F1E7     		b	.L109
 770              	.L112:
 771 002a 0020     		movs	r0, #0
 772 002c 7047     		bx	lr
 773              	.L116:
 774 002e 00BF     		.align	2
 775              	.L115:
 776 0030 00100240 		.word	1073876992
 778              		.section	.text.RCC_WaitForHSEStartUp,"ax",%progbits
 779              		.align	1
 780              		.global	RCC_WaitForHSEStartUp
 781              		.syntax unified
 782              		.thumb
 783              		.thumb_func
 785              	RCC_WaitForHSEStartUp:
 786              		@ args = 0, pretend = 0, frame = 8
 787              		@ frame_needed = 0, uses_anonymous_args = 0
 788 0000 00B5     		push	{lr}
 789 0002 83B0     		sub	sp, sp, #12
 790 0004 0023     		movs	r3, #0
 791 0006 0193     		str	r3, [sp, #4]
 792              	.L119:
 793 0008 3120     		movs	r0, #49
 794 000a FFF7FEFF 		bl	RCC_GetFlagStatus
 795 000e 019B     		ldr	r3, [sp, #4]
 796 0010 0133     		adds	r3, r3, #1
 797 0012 0193     		str	r3, [sp, #4]
 798 0014 019B     		ldr	r3, [sp, #4]
ARM GAS  C:\Users\UXP\AppData\Local\Temp\ccLoKGpK.s 			page 14


 799 0016 B3F5A06F 		cmp	r3, #1280
 800 001a 01D0     		beq	.L118
 801 001c 0028     		cmp	r0, #0
 802 001e F3D0     		beq	.L119
 803              	.L118:
 804 0020 3120     		movs	r0, #49
 805 0022 FFF7FEFF 		bl	RCC_GetFlagStatus
 806 0026 00B1     		cbz	r0, .L120
 807 0028 0120     		movs	r0, #1
 808              	.L120:
 809 002a 03B0     		add	sp, sp, #12
 810              		@ sp needed
 811 002c 5DF804FB 		ldr	pc, [sp], #4
 813              		.section	.text.RCC_ClearFlag,"ax",%progbits
 814              		.align	1
 815              		.global	RCC_ClearFlag
 816              		.syntax unified
 817              		.thumb
 818              		.thumb_func
 820              	RCC_ClearFlag:
 821              		@ args = 0, pretend = 0, frame = 0
 822              		@ frame_needed = 0, uses_anonymous_args = 0
 823              		@ link register save eliminated.
 824 0000 024A     		ldr	r2, .L123
 825 0002 536A     		ldr	r3, [r2, #36]
 826 0004 43F08073 		orr	r3, r3, #16777216
 827 0008 5362     		str	r3, [r2, #36]
 828 000a 7047     		bx	lr
 829              	.L124:
 830              		.align	2
 831              	.L123:
 832 000c 00100240 		.word	1073876992
 834              		.section	.text.RCC_GetITStatus,"ax",%progbits
 835              		.align	1
 836              		.global	RCC_GetITStatus
 837              		.syntax unified
 838              		.thumb
 839              		.thumb_func
 841              	RCC_GetITStatus:
 842              		@ args = 0, pretend = 0, frame = 0
 843              		@ frame_needed = 0, uses_anonymous_args = 0
 844              		@ link register save eliminated.
 845 0000 034B     		ldr	r3, .L128
 846 0002 9B68     		ldr	r3, [r3, #8]
 847 0004 1842     		tst	r0, r3
 848 0006 01D0     		beq	.L127
 849 0008 0120     		movs	r0, #1
 850 000a 7047     		bx	lr
 851              	.L127:
 852 000c 0020     		movs	r0, #0
 853 000e 7047     		bx	lr
 854              	.L129:
 855              		.align	2
 856              	.L128:
 857 0010 00100240 		.word	1073876992
 859              		.section	.text.RCC_ClearITPendingBit,"ax",%progbits
 860              		.align	1
ARM GAS  C:\Users\UXP\AppData\Local\Temp\ccLoKGpK.s 			page 15


 861              		.global	RCC_ClearITPendingBit
 862              		.syntax unified
 863              		.thumb
 864              		.thumb_func
 866              	RCC_ClearITPendingBit:
 867              		@ args = 0, pretend = 0, frame = 0
 868              		@ frame_needed = 0, uses_anonymous_args = 0
 869              		@ link register save eliminated.
 870 0000 014B     		ldr	r3, .L131
 871 0002 9872     		strb	r0, [r3, #10]
 872 0004 7047     		bx	lr
 873              	.L132:
 874 0006 00BF     		.align	2
 875              	.L131:
 876 0008 00100240 		.word	1073876992
 878              		.section	.rodata.ADCPrescTable,"a"
 879              		.align	2
 882              	ADCPrescTable:
 883 0000 02040608 		.ascii	"\002\004\006\010"
 884              		.section	.rodata.APBAHBPrescTable,"a"
 885              		.align	2
 888              	APBAHBPrescTable:
 889 0000 00000000 		.ascii	"\000\000\000\000\001\002\003\004\001\002\003\004\006"
 889      01020304 
 889      01020304 
 889      06
 890 000d 070809   		.ascii	"\007\010\011"
 891              		.ident	"GCC: (Arm GNU Toolchain 14.3.Rel1 (Build arm-14.174)) 14.3.1 20250623"
ARM GAS  C:\Users\UXP\AppData\Local\Temp\ccLoKGpK.s 			page 16

